
FinalProject.elf:     file format elf32-avr

Sections:
Idx Name          Size      VMA       LMA       File off  Algn
  0 .data         0000001a  00800100  00003f20  00003fb4  2**0
                  CONTENTS, ALLOC, LOAD, DATA
  1 .text         00003f20  00000000  00000000  00000094  2**1
                  CONTENTS, ALLOC, LOAD, READONLY, CODE
  2 .bss          0000002f  0080011a  0080011a  00003fce  2**0
                  ALLOC
  3 .stab         00002db4  00000000  00000000  00003fd0  2**2
                  CONTENTS, READONLY, DEBUGGING
  4 .stabstr      00000bf6  00000000  00000000  00006d84  2**0
                  CONTENTS, READONLY, DEBUGGING
  5 .comment      0000002f  00000000  00000000  0000797a  2**0
                  CONTENTS, READONLY
  6 .debug_aranges 00000128  00000000  00000000  000079a9  2**0
                  CONTENTS, READONLY, DEBUGGING
  7 .debug_info   000012ed  00000000  00000000  00007ad1  2**0
                  CONTENTS, READONLY, DEBUGGING
  8 .debug_abbrev 00000807  00000000  00000000  00008dbe  2**0
                  CONTENTS, READONLY, DEBUGGING
  9 .debug_line   00000bc9  00000000  00000000  000095c5  2**0
                  CONTENTS, READONLY, DEBUGGING
 10 .debug_frame  00000378  00000000  00000000  0000a190  2**2
                  CONTENTS, READONLY, DEBUGGING
 11 .debug_str    000004cc  00000000  00000000  0000a508  2**0
                  CONTENTS, READONLY, DEBUGGING
 12 .debug_loc    00001258  00000000  00000000  0000a9d4  2**0
                  CONTENTS, READONLY, DEBUGGING
 13 .debug_ranges 000000d8  00000000  00000000  0000bc2c  2**0
                  CONTENTS, READONLY, DEBUGGING

Disassembly of section .text:

00000000 <__vectors>:
       0:	0c 94 ae 17 	jmp	0x2f5c	; 0x2f5c <__ctors_end>
       4:	0c 94 cb 17 	jmp	0x2f96	; 0x2f96 <__bad_interrupt>
       8:	0c 94 cb 17 	jmp	0x2f96	; 0x2f96 <__bad_interrupt>
       c:	0c 94 cb 17 	jmp	0x2f96	; 0x2f96 <__bad_interrupt>
      10:	0c 94 cb 17 	jmp	0x2f96	; 0x2f96 <__bad_interrupt>
      14:	0c 94 cb 17 	jmp	0x2f96	; 0x2f96 <__bad_interrupt>
      18:	0c 94 cb 17 	jmp	0x2f96	; 0x2f96 <__bad_interrupt>
      1c:	0c 94 cb 17 	jmp	0x2f96	; 0x2f96 <__bad_interrupt>
      20:	0c 94 cb 17 	jmp	0x2f96	; 0x2f96 <__bad_interrupt>
      24:	0c 94 cb 17 	jmp	0x2f96	; 0x2f96 <__bad_interrupt>
      28:	0c 94 cb 17 	jmp	0x2f96	; 0x2f96 <__bad_interrupt>
      2c:	0c 94 cb 17 	jmp	0x2f96	; 0x2f96 <__bad_interrupt>
      30:	0c 94 cd 17 	jmp	0x2f9a	; 0x2f9a <__vector_12>
      34:	0c 94 cb 17 	jmp	0x2f96	; 0x2f96 <__bad_interrupt>
      38:	0c 94 cb 17 	jmp	0x2f96	; 0x2f96 <__bad_interrupt>
      3c:	0c 94 ed 17 	jmp	0x2fda	; 0x2fda <__vector_15>
      40:	0c 94 0c 1a 	jmp	0x3418	; 0x3418 <__vector_16>
      44:	0c 94 cb 17 	jmp	0x2f96	; 0x2f96 <__bad_interrupt>
      48:	0c 94 cb 17 	jmp	0x2f96	; 0x2f96 <__bad_interrupt>
      4c:	0c 94 cb 17 	jmp	0x2f96	; 0x2f96 <__bad_interrupt>
      50:	0c 94 cb 17 	jmp	0x2f96	; 0x2f96 <__bad_interrupt>
      54:	0c 94 cb 17 	jmp	0x2f96	; 0x2f96 <__bad_interrupt>
      58:	0c 94 cb 17 	jmp	0x2f96	; 0x2f96 <__bad_interrupt>
      5c:	0c 94 cb 17 	jmp	0x2f96	; 0x2f96 <__bad_interrupt>
      60:	0c 94 84 19 	jmp	0x3308	; 0x3308 <__vector_24>
      64:	0c 94 cb 17 	jmp	0x2f96	; 0x2f96 <__bad_interrupt>
      68:	0c 94 cb 17 	jmp	0x2f96	; 0x2f96 <__bad_interrupt>
      6c:	0c 94 cb 17 	jmp	0x2f96	; 0x2f96 <__bad_interrupt>
      70:	0c 94 cb 17 	jmp	0x2f96	; 0x2f96 <__bad_interrupt>
      74:	0c 94 cb 17 	jmp	0x2f96	; 0x2f96 <__bad_interrupt>
      78:	0c 94 cb 17 	jmp	0x2f96	; 0x2f96 <__bad_interrupt>

0000007c <boot_sound>:
      7c:	aa 03 b1 00 e6 01 85 02 ec 01 28 02 60 01 5d 02     ..........(.`.].
      8c:	45 02 df 01 ae 01 b0 01 6a 03 0a 01 02 01 ee 03     E.......j.......
      9c:	3d 01 50 01 c1 02 bb 01 5f 02 88 01 d0 01 aa 02     =.P....._.......
      ac:	dc 01 b4 01 88 01 27 03 e7 01 5d 00 9f 03 19 02     ......'...].....
      bc:	c7 00 d2 02 bf 01 42 02 02 02 3f 01 c2 02 27 02     ......B...?...'.
      cc:	91 01 8c 01 bb 02 9a 02 40 00 d8 02 f9 02 8d 00     ........@.......
      dc:	95 02 03 02 e7 01 8d 02 f8 00 6c 02 aa 02 6d 01     ..........l...m.
      ec:	8f 01 61 02 f4 02 a1 00 e5 01 8a 03 c8 00 0f 02     ..a.............
      fc:	68 02 84 01 e1 02 24 01 be 01 28 03 7e 01 6c 01     h.....$...(.~.l.
     10c:	33 02 f6 02 46 01 1f 01 96 03 6a 01 73 01 b7 02     3...F.....j.s...
     11c:	52 01 d6 02 b7 01 fe 00 58 03 e5 01 24 01 25 02     R.......X...$.%.
     12c:	c9 02 e3 01 c6 00 22 03 36 02 06 01 bf 02 6d 01     ......".6.....m.
     13c:	73 02 74 02 7e 00 0b 03 95 02 db 00 0d 02 a2 02     s.t.~...........
     14c:	41 02 e2 00 67 02 d8 02 fb 00 76 02 c4 01 ec 01     A...g.....v.....
     15c:	0b 03 7a 00 4c 02 53 03 cd 00 c7 01 9e 02 58 02     ..z.L.S.......X.
     16c:	48 01 b9 01 12 03 59 01 ff 01 22 02 80 01 44 03     H.....Y..."...D.
     17c:	f7 00 58 01 cc 03 25 01 4d 01 b4 02 48 02 b5 01     ..X...%.M...H...
     18c:	5d 01 d4 02 f1 01 98 01 53 02 58 01 14 03 c3 01     ].......S.X.....
     19c:	89 00 c3 03 e3 01 c2 00 bb 02 42 02 f0 01 68 01     ..........B...h.
     1ac:	49 02 79 02 7c 01 3e 02 75 01 a1 02 8e 02 2b 00     I.y.|.>.u.....+.
     1bc:	2c 03 d3 02 67 00 85 02 68 02 eb 01 ba 01 be 01     ,...g...h.......
     1cc:	ac 02 bd 01 f6 01 ad 01 28 02 12 03 59 00 36 02     ........(...Y.6.
     1dc:	9f 03 78 00 02 02 b3 02 c2 01 14 02 78 01 72 02     ..x.........x.r.
     1ec:	3a 02 b2 01 cf 01 dc 01 32 03 f5 00 39 01 f8 03     :.......2...9...
     1fc:	06 01 50 01 f9 02 a8 01 3b 02 97 01 e9 01 af 02     ..P.....;.......
     20c:	ad 01 ba 01 c7 01 02 03 b9 01 8b 00 bc 03 ed 01     ................
     21c:	af 00 05 03 c7 01 18 02 02 02 59 01 d5 02 00 02     ..........Y.....
     22c:	79 01 cf 01 b5 02 5a 02 5c 00 04 03 dd 02 66 00     y.....Z.\.....f.
     23c:	b5 02 22 02 c3 01 7b 02 0d 01 89 02 93 02 3f 01     .."...{.......?.
     24c:	c6 01 7d 02 ae 02 a5 00 1a 02 80 03 9d 00 19 02     ..}.............
     25c:	93 02 72 01 c0 02 2f 01 e1 01 25 03 45 01 89 01     ..r.../...%.E...
     26c:	6c 02 bb 02 2d 01 54 01 9e 03 43 01 67 01 e0 02     l...-.T...C.g...
     27c:	59 01 ae 02 b2 01 21 01 67 03 ae 01 20 01 6c 02     Y.....!.g... .l.
     28c:	a8 02 b0 01 f2 00 3a 03 19 02 ec 00 db 02 8b 01     ......:.........
     29c:	51 02 5c 02 9d 00 2b 03 6a 02 ba 00 53 02 a3 02     Q.\...+.j...S...
     2ac:	ff 01 fb 00 8c 02 c8 02 db 00 7d 02 ee 01 dc 01     ..........}.....
     2bc:	e3 02 8d 00 77 02 3a 03 98 00 fb 01 c1 02 15 02     ....w.:.........
     2cc:	47 01 e6 01 0f 03 3c 01 f2 01 4c 02 89 01 13 03     G.....<...L.....
     2dc:	f8 00 88 01 c9 03 e8 00 64 01 ef 02 15 02 99 01     ........d.......
     2ec:	89 01 df 02 dc 01 7e 01 6f 02 7a 01 e7 02 ad 01     ......~.o.z.....
     2fc:	b9 00 d5 03 aa 01 bb 00 ff 02 2c 02 bf 01 88 01     ..........,.....
     30c:	60 02 6e 02 5c 01 43 02 a7 01 86 02 61 02 51 00     `.n.\.C.....a.Q.
     31c:	50 03 a6 02 47 00 c1 02 72 02 b1 01 c7 01 de 01     P...G...r.......
     32c:	ac 02 a1 01 e5 01 e2 01 2a 02 d6 02 6d 00 69 02     ........*...m.i.
     33c:	84 03 47 00 2b 02 d8 02 8e 01 09 02 9a 01 7c 02     ..G.+.........|.
     34c:	28 02 90 01 f7 01 fb 01 f4 02 ef 00 73 01 f3 03     (...........s...
     35c:	d0 00 5e 01 2e 03 89 01 1a 02 b2 01 fd 01 a9 02     ..^.............
     36c:	83 01 cb 01 fe 01 d2 02 96 01 c3 00 cc 03 ba 01     ................
     37c:	a5 00 3a 03 c3 01 eb 01 0e 02 74 01 db 02 d8 01     ..:.......t.....
     38c:	70 01 11 02 a0 02 1f 02 87 00 28 03 b5 02 49 00     p.........(...I.
     39c:	df 02 37 02 98 01 73 02 2a 01 9b 02 76 02 1d 01     ..7...s.*...v...
     3ac:	01 02 8a 02 67 02 b8 00 4d 02 67 03 75 00 2f 02     ....g...M.g.u./.
     3bc:	ba 02 55 01 a4 02 46 01 fd 01 15 03 15 01 b0 01     ..U...F.........
     3cc:	99 02 78 02 22 01 90 01 98 03 1a 01 69 01 0b 03     ..x.".......i...
     3dc:	54 01 86 02 bb 01 45 01 68 03 79 01 2b 01 ae 02     T.....E.h.y.+...
     3ec:	7a 02 87 01 2a 01 48 03 f3 01 dc 00 fd 02 9d 01     z...*.H.........
     3fc:	29 02 50 02 c2 00 3c 03 3b 02 a9 00 99 02 95 02     ).P...<.;.......
     40c:	bf 01 23 01 ad 02 ab 02 c2 00 8f 02 11 02 c1 01     ..#.............
     41c:	c2 02 ac 00 97 02 18 03 70 00 36 02 d6 02 ce 01     ........p.6.....
     42c:	55 01 15 02 fe 02 1f 01 f2 01 74 02 85 01 e4 02     U.........t.....
     43c:	07 01 b5 01 b8 03 b3 00 88 01 21 03 d8 01 88 01     ..........!.....
     44c:	bd 01 de 02 c0 01 6f 01 8f 02 90 01 b6 02 a4 01     ......o.........
     45c:	ec 00 d8 03 72 01 c3 00 3f 03 07 02 93 01 b5 01     ....r...?.......
     46c:	71 02 58 02 45 01 53 02 d1 01 61 02 3e 02 81 00     q.X.E.S...a.>...
     47c:	68 03 73 02 35 00 01 03 6d 02 76 01 e1 01 fd 01     h.s.5...m.v.....
     48c:	9e 02 87 01 e1 01 13 02 1e 02 9f 02 8e 00 93 02     ................
     49c:	5d 03 21 00 5c 02 f2 02 54 01 09 02 c2 01 7b 02     ].!.\...T.....{.
     4ac:	10 02 7c 01 22 02 0d 02 b4 02 f8 00 ac 01 de 03     ..|."...........
     4bc:	9e 00 7b 01 5c 03 5e 01 01 02 d8 01 09 02 98 02     ..{.\.^.........
     4cc:	64 01 e5 01 2b 02 9a 02 80 01 02 01 cd 03 85 01     d...+...........
     4dc:	aa 00 6f 03 b1 01 c0 01 27 02 8d 01 d3 02 b5 01     ..o.....'.......
     4ec:	73 01 4c 02 7f 02 ec 01 bf 00 40 03 84 02 3a 00     s.L.......@...:.
     4fc:	0e 03 41 02 68 01 76 02 4b 01 9f 02 55 02 0a 01     ..A.h.v.K...U...
     50c:	3c 02 89 02 22 02 da 00 7b 02 41 03 57 00 50 02     <..."...{.A.W.P.
     51c:	d8 02 2f 01 91 02 66 01 0f 02 fd 02 f1 00 de 01     ../...f.........
     52c:	b8 02 30 02 25 01 cd 01 82 03 f1 00 78 01 32 03     ..0.%.......x.2.
     53c:	42 01 61 02 d0 01 64 01 5c 03 4d 01 43 01 e6 02     B.a...d.\.M.C...
     54c:	41 02 69 01 6a 01 49 03 c8 01 db 00 22 03 a4 01     A.i.j.I....."...
     55c:	fe 01 51 02 e9 00 3f 03 0d 02 a7 00 dc 02 79 02     ..Q...?.......y.
     56c:	86 01 58 01 c6 02 82 02 b3 00 aa 02 2b 02 9e 01     ..X.........+...
     57c:	ab 02 d3 00 ac 02 ef 02 57 00 74 02 dc 02 87 01     ........W.t.....
     58c:	71 01 42 02 e0 02 06 01 fe 01 97 02 76 01 b9 02     q.B.........v...
     59c:	22 01 db 01 9a 03 89 00 b5 01 45 03 95 01 84 01     ".........E.....
     5ac:	f5 01 cf 02 a2 01 6d 01 b1 02 9a 01 83 02 a9 01     ......m.........
     5bc:	1e 01 cb 03 3e 01 d9 00 77 03 d7 01 71 01 ec 01     ....>...w...q...
     5cc:	77 02 39 02 38 01 6a 02 f0 01 36 02 28 02 b7 00     w.9.8.j...6.(...
     5dc:	70 03 3d 02 33 00 3f 03 5a 02 3e 01 08 02 18 02     p.=.3.?.Z.>.....
     5ec:	85 02 72 01 e9 01 3e 02 06 02 6f 02 bc 00 b3 02     ..r...>...o.....
     5fc:	2d 03 0a 00 94 02 fd 02 16 01 16 02 eb 01 6c 02     -.............l.
     60c:	f8 01 74 01 4d 02 11 02 76 02 0f 01 e0 01 ba 03     ..t.M...v.......
     61c:	76 00 a2 01 7f 03 2a 01 f2 01 05 02 0b 02 7f 02     v.....*.........
     62c:	50 01 04 02 4a 02 5d 02 78 01 42 01 be 03 52 01     P...J.].x.B...R.
     63c:	bd 00 9f 03 93 01 9a 01 4b 02 a0 01 c0 02 9a 01     ........K.......
     64c:	81 01 7e 02 53 02 c4 01 fe 00 4b 03 4d 02 39 00     ..~.S.....K.M.9.
     65c:	40 03 3c 02 37 01 86 02 6d 01 96 02 36 02 06 01     @.<.7...m...6...
     66c:	74 02 7a 02 e2 01 0a 01 a1 02 0e 03 43 00 79 02     t.z.........C.y.
     67c:	ea 02 03 01 88 02 8d 01 15 02 df 02 db 00 0f 02     ................
     68c:	c9 02 e7 01 38 01 08 02 5e 03 cf 00 94 01 53 03     ....8...^.....S.
     69c:	26 01 42 02 ef 01 7b 01 44 03 2a 01 64 01 12 03     &.B...{.D.*.d...
     6ac:	01 02 58 01 af 01 3a 03 9b 01 e7 00 47 03 9e 01     ..X...:.....G...
     6bc:	d4 01 5e 02 0f 01 34 03 e3 01 b3 00 17 03 50 02     ..^...4.......P.
     6cc:	56 01 97 01 d3 02 52 02 b0 00 ca 02 39 02 77 01     V.....R.....9.w.
     6dc:	9f 02 fe 00 b2 02 c3 02 4d 00 b1 02 d3 02 43 01     ........M.....C.
     6ec:	9b 01 69 02 b4 02 f4 00 15 02 b3 02 5e 01 97 02     ..i.........^...
     6fc:	47 01 f6 01 73 03 6c 00 e9 01 5b 03 4e 01 8f 01     G...s.l...[.N...
     70c:	2f 02 b3 02 85 01 78 01 d0 02 97 01 54 02 bb 01     /.....x.....T...
     71c:	4c 01 b0 03 12 01 fc 00 a4 03 9e 01 5a 01 2a 02     L...........Z.*.
     72c:	71 02 15 02 37 01 85 02 02 02 07 02 1f 02 f0 00     q...7...........
     73c:	69 03 08 02 41 00 78 03 3a 02 0d 01 3b 02 2a 02     i...A.x.:...;.*.
     74c:	60 02 67 01 fa 01 5f 02 e6 01 4a 02 f1 00 c5 02     `.g..._...J.....
     75c:	f6 02 02 00 cd 02 fa 02 d9 00 31 02 13 02 50 02     ..........1...P.
     76c:	e3 01 79 01 73 02 09 02 3e 02 33 01 0c 02 8a 03     ..y.s...>.3.....
     77c:	59 00 d3 01 96 03 f1 00 ef 01 37 02 00 02 64 02     Y.........7...d.
     78c:	49 01 26 02 5b 02 20 02 7f 01 81 01 9f 03 24 01     I.&.[. .......$.
     79c:	df 00 c7 03 6a 01 7d 01 79 02 ab 01 a4 02 89 01     ....j.}.y.......
     7ac:	97 01 a4 02 21 02 aa 01 43 01 46 03 14 02 48 00     ....!...C.F...H.
     7bc:	6f 03 2a 02 0b 01 a3 02 8a 01 81 02 1d 02 0d 01     o.*.............
     7cc:	a4 02 5f 02 ac 01 45 01 ba 02 d3 02 3e 00 a7 02     .._...E.....>...
     7dc:	ee 02 d5 00 8b 02 b6 01 0f 02 c0 02 d4 00 40 02     ..............@.
     7ec:	cb 02 a3 01 59 01 3d 02 2c 03 b5 00 bb 01 68 03     ....Y.=.,.....h.
     7fc:	02 01 2d 02 16 02 88 01 25 03 14 01 8b 01 2f 03     ..-.....%...../.
     80c:	be 01 57 01 f5 01 1d 03 70 01 02 01 66 03 8c 01     ..W.....p...f...
     81c:	af 01 76 02 2f 01 1c 03 c1 01 cb 00 47 03 1e 02     ..v./.......G...
     82c:	33 01 dd 01 d2 02 1d 02 bb 00 ec 02 3b 02 4f 01     3...........;.O.
     83c:	a0 02 2a 01 ab 02 98 02 53 00 e9 02 bc 02 07 01     ..*.....S.......
     84c:	d2 01 87 02 7f 02 ee 00 34 02 c3 02 3f 01 7f 02     ........4...?...
     85c:	72 01 05 02 46 03 5f 00 20 02 61 03 08 01 a8 01     r...F._. .a.....
     86c:	65 02 89 02 6d 01 90 01 e8 02 8a 01 2b 02 d8 01     e...m.......+...
     87c:	72 01 89 03 f2 00 28 01 c4 03 5f 01 51 01 6b 02     r.....(..._.Q.k.
     88c:	5d 02 ef 01 45 01 9f 02 08 02 da 01 23 02 26 01     ]...E.......#.&.
     89c:	53 03 d9 01 5c 00 a8 03 0e 02 e7 00 77 02 32 02     S...\.......w.2.
     8ac:	35 02 67 01 11 02 75 02 c2 01 32 02 2b 01 c8 02     5.g...u...2.+...
     8bc:	bd 02 0a 00 05 03 e8 02 a1 00 59 02 35 02 29 02     ..........Y.5.).
     8cc:	d5 01 89 01 91 02 f7 01 0f 02 61 01 2c 02 51 03     ..........a.,.Q.
     8dc:	4b 00 09 02 9d 03 b6 00 fa 01 69 02 e8 01 49 02     K.........i...I.
     8ec:	50 01 45 02 60 02 e6 01 94 01 ba 01 73 03 00 01     P.E.`.......s...
     8fc:	0c 01 e2 03 39 01 6c 01 ac 02 aa 01 82 02 84 01     ....9.l.........
     90c:	b2 01 bc 02 ec 01 9f 01 89 01 32 03 de 01 66 00     ..........2...f.
     91c:	97 03 0c 02 e5 00 c9 02 a1 01 61 02 0b 02 1f 01     ..........a.....
     92c:	ca 02 3b 02 82 01 87 01 c5 02 94 02 48 00 d6 02     ..;.........H...
     93c:	e5 02 a8 00 9b 02 dd 01 fb 01 a3 02 da 00 6b 02     ..............k.
     94c:	c0 02 65 01 87 01 68 02 ef 02 a8 00 e9 01 71 03     ..e...h.......q.
     95c:	da 00 24 02 42 02 89 01 02 03 0c 01 b4 01 3d 03     ..$.B.........=.
     96c:	7c 01 65 01 37 02 f1 02 4c 01 29 01 7d 03 70 01     |.e.7...L.).}.p.
     97c:	93 01 97 02 47 01 fb 02 a9 01 eb 00 69 03 e6 01     ....G.......i...
     98c:	1e 01 27 02 c2 02 e7 01 d5 00 0c 03 2f 02 2a 01     ..'........./.*.
     99c:	ad 02 53 01 96 02 73 02 66 00 19 03 99 02 d6 00     ..S...s.f.......
     9ac:	11 02 99 02 42 02 f5 00 57 02 c6 02 1e 01 74 02     ....B...W.....t.
     9bc:	a0 01 06 02 17 03 61 00 54 02 58 03 c8 00 cf 01     ......a.T.X.....
     9cc:	94 02 53 02 5f 01 b1 01 f7 02 74 01 0c 02 fd 01     ..S._.....t.....
     9dc:	8d 01 5b 03 e0 00 5a 01 d3 03 1f 01 58 01 ac 02     ..[...Z.....X...
     9ec:	3b 02 cc 01 5f 01 b5 02 01 02 b2 01 32 02 56 01     ;..._.......2.V.
     9fc:	31 03 b2 01 84 00 cc 03 da 01 cf 00 b8 02 2d 02     1.............-.
     a0c:	05 02 74 01 2a 02 7d 02 9c 01 27 02 65 01 bd 02     ..t.*.}...'.e...
     a1c:	86 02 21 00 36 03 c8 02 73 00 8b 02 4d 02 f9 01     ..!.6...s...M...
     a2c:	d1 01 a2 01 a4 02 de 01 ec 01 95 01 3f 02 14 03     ............?...
     a3c:	4c 00 40 02 94 03 7e 00 12 02 97 02 c4 01 33 02     L.@...~.......3.
     a4c:	63 01 5e 02 58 02 b4 01 b4 01 e9 01 3b 03 e9 00     c.^.X.......;...
     a5c:	41 01 ef 03 04 01 68 01 e2 02 9c 01 5e 02 8c 01     A.....h.....^...
     a6c:	cd 01 c7 02 b9 01 a1 01 cb 01 0f 03 af 01 92 00     ................
     a7c:	b6 03 e3 01 cb 00 f8 02 ad 01 3a 02 05 02 38 01     ..........:...8.
     a8c:	e3 02 13 02 66 01 cc 01 c1 02 54 02 62 00 02 03     ....f.....T.b...
     a9c:	cd 02 80 00 b6 02 ff 01 dd 01 8d 02 eb 00 8d 02     ................
     aac:	aa 02 32 01 bd 01 86 02 ab 02 aa 00 1c 02 6b 03     ..2...........k.
     abc:	b0 00 28 02 6d 02 7e 01 de 02 12 01 da 01 3c 03     ..(.m.~.......<.
     acc:	3e 01 80 01 71 02 b8 02 32 01 5b 01 88 03 4d 01     >...q...2.[...M.
     adc:	82 01 bf 02 54 01 d4 02 9f 01 10 01 7d 03 ad 01     ....T.......}...
     aec:	18 01 70 02 a4 02 b5 01 fd 00 25 03 17 02 0d 01     ..p.......%.....
     afc:	c4 02 75 01 77 02 56 02 84 00 3d 03 6d 02 b3 00     ..u.w.V...=.m...
     b0c:	57 02 9c 02 02 02 0a 01 7b 02 bb 02 fd 00 75 02     W.......{.....u.
     b1c:	cd 01 fb 01 eb 02 71 00 82 02 41 03 91 00 01 02     ......q...A.....
     b2c:	b8 02 14 02 5b 01 da 01 f9 02 59 01 f9 01 26 02     ....[.....Y...&.
     b3c:	9b 01 28 03 dd 00 8c 01 d3 03 e1 00 6d 01 e7 02     ..(.........m...
     b4c:	0c 02 b0 01 85 01 c3 02 f1 01 92 01 4b 02 7d 01     ............K.}.
     b5c:	04 03 98 01 b4 00 e1 03 a2 01 c5 00 fb 02 1b 02     ................
     b6c:	d5 01 8f 01 41 02 78 02 79 01 28 02 9c 01 a5 02     ....A.x.y.(.....
     b7c:	56 02 46 00 5d 03 9d 02 50 00 c5 02 5a 02 c2 01     V.F.]...P...Z...
     b8c:	d8 01 bf 01 aa 02 c1 01 d5 01 cc 01 44 02 d6 02     ............D...
     b9c:	5e 00 74 02 7c 03 4c 00 37 02 be 02 95 01 25 02     ^.t.|.L.7.....%.
     bac:	80 01 6e 02 48 02 8d 01 dc 01 0d 02 fd 02 e0 00     ..n.H...........
     bbc:	7b 01 ed 03 cf 00 72 01 16 03 82 01 3d 02 a2 01     {.....r.....=...
     bcc:	e5 01 c4 02 8b 01 b0 01 06 02 e0 02 89 01 c8 00     ................
     bdc:	c8 03 b3 01 bd 00 2a 03 ae 01 0f 02 0b 02 54 01     ......*.......T.
     bec:	ef 02 e9 01 59 01 10 02 af 02 17 02 8a 00 27 03     ....Y.........'.
     bfc:	a9 02 62 00 db 02 18 02 b5 01 7f 02 06 01 a5 02     ..b.............
     c0c:	8c 02 0d 01 fa 01 96 02 63 02 ba 00 4e 02 57 03     ........c...N.W.
     c1c:	89 00 39 02 95 02 66 01 bf 02 25 01 fb 01 2f 03     ..9...f...%.../.
     c2c:	0a 01 a7 01 a1 02 76 02 25 01 93 01 85 03 26 01     ......v.%.....&.
     c3c:	7e 01 e8 02 54 01 aa 02 a2 01 36 01 82 03 75 01     ~...T.....6...u.
     c4c:	21 01 b3 02 77 02 8b 01 31 01 35 03 f6 01 fa 00     !...w...1.5.....
     c5c:	e3 02 8d 01 50 02 44 02 aa 00 53 03 3d 02 9f 00     ....P.D...S.=...
     c6c:	9e 02 90 02 c3 01 2e 01 9b 02 a4 02 e2 00 82 02     ................
     c7c:	f4 01 e4 01 c5 02 8e 00 a7 02 1f 03 66 00 3b 02     ............f.;.
     c8c:	cf 02 cf 01 66 01 07 02 ee 02 3d 01 f3 01 50 02     ....f.....=...P.
     c9c:	9d 01 f6 02 e8 00 bd 01 c4 03 a9 00 8f 01 19 03     ................
     cac:	d3 01 9d 01 b4 01 c6 02 d9 01 7d 01 6b 02 99 01     ..........}.k...
     cbc:	d2 02 8b 01 e9 00 e6 03 68 01 ca 00 3b 03 fa 01     ........h...;...
     ccc:	aa 01 b6 01 53 02 67 02 5d 01 35 02 cb 01 81 02     ....S.g.].5.....
     cdc:	2f 02 76 00 77 03 6b 02 3c 00 03 03 59 02 89 01     /.v.w.k.<...Y...
     cec:	ed 01 dd 01 a3 02 a5 01 cc 01 01 02 3b 02 9b 02     ............;...
     cfc:	7e 00 a1 02 57 03 25 00 66 02 d9 02 5e 01 21 02     ~...W.%.f...^.!.
     d0c:	a5 01 73 02 31 02 72 01 09 02 23 02 bb 02 e6 00     ..s.1.r...#.....
     d1c:	b5 01 da 03 9e 00 8b 01 44 03 5c 01 21 02 c2 01     ........D.\.!...
     d2c:	f6 01 b7 02 66 01 c9 01 37 02 a7 02 71 01 06 01     ....f...7...q...
     d3c:	cc 03 80 01 be 00 5e 03 a1 01 e4 01 1e 02 6f 01     ......^.......o.
     d4c:	ed 02 c1 01 59 01 4f 02 8f 02 e2 01 c0 00 41 03     ....Y.O.......A.
     d5c:	7a 02 4f 00 07 03 25 02 88 01 7d 02 27 01 af 02     z.O...%...}.'...
     d6c:	6a 02 f5 00 38 02 97 02 1d 02 da 00 7c 02 34 03     j...8.......|.4.
     d7c:	6a 00 55 02 b5 02 45 01 a7 02 42 01 13 02 17 03     j.U...E...B.....
     d8c:	e2 00 d5 01 c3 02 2e 02 26 01 cf 01 73 03 ff 00     ........&...s...
     d9c:	88 01 10 03 49 01 83 02 b2 01 59 01 78 03 44 01     ....I.....Y.x.D.
     dac:	37 01 ee 02 40 02 6b 01 6e 01 38 03 ce 01 f3 00     7...@.k.n.8.....
     dbc:	06 03 9a 01 25 02 3f 02 d3 00 5a 03 0c 02 9a 00     ....%.?...Z.....
     dcc:	e2 02 76 02 89 01 60 01 b4 02 80 02 d0 00 98 02     ..v...`.........
     ddc:	13 02 c4 01 a9 02 b4 00 c0 02 f5 02 4a 00 79 02     ............J.y.
     dec:	d7 02 89 01 7f 01 32 02 d5 02 23 01 f9 01 76 02     ......2...#...v.
     dfc:	92 01 c7 02 00 01 e6 01 a7 03 7c 00 bb 01 40 03     ..........|...@.
     e0c:	92 01 97 01 ea 01 bd 02 bd 01 74 01 8d 02 a8 01     ..........t.....
     e1c:	9d 02 8b 01 1e 01 dc 03 32 01 df 00 74 03 cd 01     ........2...t...
     e2c:	86 01 e9 01 5d 02 4d 02 4b 01 49 02 ef 01 56 02     ....].M.K.I...V.
     e3c:	14 02 ad 00 82 03 34 02 37 00 40 03 49 02 52 01     ......4.7.@.I.R.
     e4c:	10 02 f9 01 8f 02 8e 01 cf 01 31 02 26 02 67 02     ..........1.&.g.
     e5c:	aa 00 c3 02 28 03 0b 00 9b 02 e8 02 24 01 2a 02     ....(.......$.*.
     e6c:	cc 01 6b 02 18 02 64 01 36 02 2b 02 7a 02 fb 00     ..k...d.6.+.z...
     e7c:	eb 01 b8 03 74 00 b0 01 69 03 2d 01 0f 02 ec 01     ....t...i.-.....
     e8c:	fc 01 a1 02 4c 01 e9 01 5b 02 69 02 66 01 47 01     ....L...[.i.f.G.
     e9c:	bf 03 4d 01 cf 00 8d 03 88 01 bd 01 3c 02 86 01     ..M.........<...
     eac:	de 02 a1 01 65 01 85 02 64 02 b8 01 ff 00 4d 03     ....e...d.....M.
     ebc:	46 02 4c 00 36 03 26 02 59 01 87 02 49 01 ac 02     F.L.6.&.Y...I...
     ecc:	48 02 ec 00 73 02 8a 02 db 01 08 01 a3 02 05 03     H...s...........
     edc:	54 00 7a 02 cb 02 1d 01 99 02 66 01 1f 02 f9 02     T.z.......f.....
     eec:	c7 00 08 02 d7 02 e5 01 37 01 0a 02 52 03 dd 00     ........7...R...
     efc:	9f 01 31 03 32 01 60 02 cd 01 76 01 63 03 1d 01     ..1.2.`...v.c...
     f0c:	58 01 1d 03 00 02 59 01 b1 01 2c 03 a3 01 fb 00     X.....Y...,.....
     f1c:	29 03 9a 01 fa 01 46 02 fb 00 52 03 de 01 a4 00     ).....F...R.....
     f2c:	1f 03 4f 02 58 01 9c 01 c3 02 54 02 c9 00 b5 02     ..O.X.....T.....
     f3c:	27 02 9e 01 97 02 e0 00 cc 02 c7 02 3d 00 b8 02     '...........=...
     f4c:	d0 02 45 01 a5 01 59 02 af 02 10 01 0a 02 96 02     ..E...Y.........
     f5c:	7e 01 9f 02 24 01 06 02 80 03 5c 00 ef 01 58 03     ~...$.....\...X.
     f6c:	4c 01 9f 01 21 02 a5 02 a1 01 7a 01 ae 02 ab 01     L...!.....z.....
     f7c:	6a 02 9a 01 50 01 c3 03 04 01 00 01 a3 03 96 01     j...P...........
     f8c:	6e 01 23 02 5a 02 2c 02 44 01 63 02 08 02 26 02     n.#.Z.,.D.c...&.
     f9c:	06 02 e7 00 7e 03 fe 01 42 00 7a 03 2c 02 21 01     ....~...B.z.,.!.
     fac:	3e 02 0d 02 70 02 7e 01 dc 01 58 02 07 02 3e 02     >...p.~...X...>.
     fbc:	e0 00 d8 02 f1 02 01 00 d4 02 e7 02 e8 00 40 02     ..............@.
     fcc:	f3 01 55 02 01 02 64 01 60 02 26 02 3e 02 1d 01     ..U...d.`.&.>...
     fdc:	1a 02 8a 03 56 00 de 01 81 03 f7 00 09 02 1a 02     ....V...........
     fec:	f7 01 86 02 3f 01 0d 02 71 02 29 02 6b 01 88 01     ....?...q.).k...
     ffc:	a2 03 1f 01 ed 00 b6 03 64 01 9e 01 65 02 94 01     ........d...e...
    100c:	c5 02 8a 01 7b 01 b0 02 31 02 9a 01 44 01 4b 03     ....{...1...D.K.
    101c:	0e 02 57 00 64 03 19 02 2c 01 9d 02 69 01 9c 02     ..W.d...,...i...
    102c:	2a 02 f1 00 a8 02 71 02 a2 01 42 01 be 02 cc 02     *.....q...B.....
    103c:	4d 00 a5 02 d4 02 f1 00 96 02 8f 01 1e 02 d8 02     M...............
    104c:	bb 00 3b 02 dc 02 9e 01 56 01 3f 02 24 03 c2 00     ..;.....V.?.$...
    105c:	c1 01 4a 03 13 01 47 02 f1 01 89 01 44 03 02 01     ..J...G.....D...
    106c:	80 01 3d 03 bc 01 55 01 f6 01 12 03 7a 01 10 01     ..=...U.....z...
    107c:	49 03 8e 01 d3 01 5a 02 20 01 3e 03 b8 01 bb 00     I.....Z. .>.....
    108c:	53 03 1e 02 33 01 e1 01 c5 02 22 02 d0 00 d4 02     S...3.....".....
    109c:	2e 02 76 01 92 02 0e 01 c9 02 9a 02 40 00 f3 02     ..v.........@...
    10ac:	bb 02 08 01 d9 01 78 02 7e 02 07 01 25 02 ab 02     ......x.~...%...
    10bc:	62 01 82 02 4f 01 1a 02 52 03 4b 00 26 02 60 03     b...O...R.K.&.`.
    10cc:	07 01 b5 01 56 02 80 02 88 01 8b 01 c9 02 a2 01     ....V...........
    10dc:	3d 02 b4 01 7a 01 9d 03 e1 00 2b 01 c4 03 59 01     =...z.....+...Y.
    10ec:	63 01 61 02 4b 02 09 02 4b 01 7d 02 14 02 f6 01     c.a.K...K.}.....
    10fc:	06 02 20 01 6b 03 cc 01 5c 00 ab 03 03 02 fa 00     .. .k...\.......
    110c:	75 02 18 02 49 02 79 01 f1 01 73 02 e2 01 20 02     u...I.y...s... .
    111c:	1b 01 df 02 b7 02 06 00 0b 03 d8 02 b1 00 63 02     ..............c.
    112c:	16 02 34 02 f0 01 6f 01 84 02 16 02 0a 02 4b 01     ..4...o.......K.
    113c:	3d 02 52 03 45 00 12 02 8b 03 be 00 0f 02 4b 02     =.R.E.........K.
    114c:	e5 01 6b 02 3f 01 2f 02 79 02 ec 01 7d 01 c3 01     ..k.?./.y...}...
    115c:	78 03 f9 00 17 01 d3 03 37 01 89 01 95 02 99 01     x.......7.......
    116c:	a6 02 7f 01 96 01 ce 02 fa 01 8c 01 8b 01 39 03     ..............9.
    117c:	d8 01 72 00 8d 03 ff 01 06 01 bf 02 83 01 81 02     ..r.............
    118c:	13 02 00 01 d3 02 4d 02 75 01 83 01 cb 02 8e 02     ......M.u.......
    119c:	54 00 d2 02 cf 02 c5 00 a0 02 b7 01 11 02 b8 02     T...............
    11ac:	bc 00 6b 02 d3 02 5d 01 82 01 6b 02 e9 02 b3 00     ..k...]...k.....
    11bc:	ec 01 56 03 ed 00 39 02 1b 02 90 01 21 03 f4 00     ..V...9.....!...
    11cc:	ab 01 4e 03 78 01 61 01 39 02 e9 02 56 01 33 01     ..N.x.a.9...V.3.
    11dc:	61 03 77 01 b3 01 77 02 3d 01 1f 03 9b 01 db 00     a.w...w.=.......
    11ec:	79 03 e5 01 1c 01 29 02 b8 02 ee 01 e5 00 f3 02     y.....).........
    11fc:	29 02 4f 01 9a 02 3b 01 b8 02 70 02 51 00 26 03     ).O...;...p.Q.&.
    120c:	99 02 d5 00 17 02 8b 02 45 02 0b 01 45 02 b4 02     ........E...E...
    121c:	41 01 71 02 7e 01 20 02 21 03 4a 00 5d 02 5a 03     A.q.~. .!.J.].Z.
    122c:	c6 00 d9 01 85 02 4f 02 78 01 a8 01 dc 02 90 01     ......O.x.......
    123c:	18 02 d8 01 9a 01 6f 03 cb 00 5d 01 d6 03 19 01     ......o...].....
    124c:	66 01 a0 02 2e 02 e7 01 5f 01 95 02 13 02 c9 01     f......._.......
    125c:	12 02 55 01 4a 03 a3 01 83 00 d1 03 d1 01 df 00     ..U.J...........
    126c:	b3 02 17 02 1c 02 80 01 09 02 82 02 bb 01 10 02     ................
    127c:	58 01 d7 02 7e 02 1b 00 3d 03 bb 02 81 00 91 02     X...~...=.......
    128c:	30 02 08 02 e7 01 84 01 9d 02 fe 01 e1 01 80 01     0...............
    129c:	54 02 14 03 44 00 49 02 86 03 87 00 23 02 78 02     T...D.I.....#.x.
    12ac:	c7 01 53 02 4d 01 4d 02 75 02 b5 01 9c 01 f6 01     ..S.M.M.u.......
    12bc:	42 03 e0 00 4b 01 e2 03 05 01 82 01 c8 02 91 01     B...K...........
    12cc:	83 02 81 01 b3 01 dd 02 c3 01 8b 01 cf 01 18 03     ................
    12dc:	a7 01 9b 00 ad 03 da 01 e9 00 e9 02 94 01 5d 02     ..............].
    12ec:	07 02 18 01 f2 02 23 02 55 01 c9 01 ca 02 4e 02     ......#.U.....N.
    12fc:	6a 00 fd 02 bc 02 9d 00 b6 02 db 01 f7 01 9d 02     j...............
    130c:	cb 00 92 02 bd 02 27 01 b8 01 8c 02 a7 02 b2 00     ......'.........
    131c:	1c 02 55 03 c6 00 37 02 46 02 8a 01 fb 02 f5 00     ..U...7.F.......
    132c:	d5 01 51 03 38 01 7b 01 74 02 b3 02 3b 01 60 01     ..Q.8.{.t...;.`.
    133c:	6f 03 58 01 9d 01 9c 02 50 01 f8 02 8b 01 02 01     o.X.....P.......
    134c:	91 03 aa 01 14 01 72 02 9c 02 bd 01 08 01 0d 03     ......r.........
    135c:	17 02 2f 01 ac 02 61 01 9c 02 4f 02 6e 00 4d 03     ../...a...O.n.M.
    136c:	6e 02 af 00 5b 02 91 02 07 02 1c 01 66 02 b0 02     n...[.......f...
    137c:	21 01 6c 02 ad 01 19 02 f2 02 57 00 8e 02 44 03     !.l.......W...D.
    138c:	8d 00 09 02 ab 02 13 02 72 01 cc 01 e4 02 78 01     ........r.....x.
    139c:	ff 01 01 02 ae 01 3b 03 c4 00 92 01 d9 03 da 00     ......;.........
    13ac:	78 01 db 02 03 02 c9 01 80 01 a6 02 07 02 a4 01     x...............
    13bc:	29 02 81 01 1f 03 84 01 b3 00 e9 03 99 01 d3 00     )...............
    13cc:	f4 02 08 02 ef 01 95 01 21 02 83 02 95 01 0d 02     ........!.......
    13dc:	92 01 c1 02 4b 02 3e 00 66 03 93 02 5d 00 c7 02     ....K.>.f...]...
    13ec:	3f 02 d5 01 ea 01 9f 01 a9 02 e1 01 c5 01 b9 01     ?...............
    13fc:	5c 02 d4 02 53 00 7d 02 71 03 55 00 44 02 a0 02     \...S.}.q.U.D...
    140c:	9e 01 41 02 65 01 62 02 67 02 89 01 c4 01 1d 02     ..A.e.b.g.......
    141c:	03 03 d4 00 84 01 e2 03 d1 00 88 01 fb 02 7c 01     ..............|.
    142c:	61 02 90 01 ce 01 df 02 91 01 98 01 0e 02 ea 02     a...............
    143c:	80 01 cf 00 c1 03 ae 01 d8 00 18 03 99 01 34 02     ..............4.
    144c:	07 02 35 01 03 03 f7 01 44 01 10 02 ba 02 11 02     ..5.....D.......
    145c:	90 00 22 03 9c 02 7d 00 d6 02 f7 01 d4 01 8a 02     .."...}.........
    146c:	e4 00 af 02 9f 02 fd 00 f5 01 9f 02 60 02 c0 00     ............`...
    147c:	4d 02 44 03 a0 00 42 02 6f 02 79 01 d9 02 04 01     M.D...B.o.y.....
    148c:	fa 01 45 03 00 01 a0 01 a6 02 73 02 2c 01 96 01     ..E.......s.,...
    149c:	70 03 34 01 94 01 c4 02 56 01 ce 02 88 01 2a 01     p.4.....V.....*.
    14ac:	99 03 70 01 1b 01 b7 02 72 02 92 01 38 01 1e 03     ..p.....r...8...
    14bc:	fa 01 18 01 c7 02 7f 01 77 02 37 02 94 00 67 03     ........w.7...g.
    14cc:	3d 02 99 00 a2 02 88 02 ca 01 3b 01 86 02 9e 02     =.........;.....
    14dc:	04 01 73 02 d9 01 06 02 c7 02 72 00 b7 02 23 03     ..s.......r...#.
    14ec:	60 00 41 02 c4 02 d1 01 79 01 f5 01 de 02 5d 01     `.A.....y.....].
    14fc:	f2 01 2d 02 b5 01 05 03 cb 00 c5 01 cc 03 a2 00     ..-.............
    150c:	98 01 0e 03 ce 01 b5 01 aa 01 ae 02 f3 01 8a 01     ................
    151c:	47 02 a3 01 eb 02 73 01 e8 00 f1 03 5f 01 d6 00     G.....s....._...
    152c:	33 03 ec 01 c3 01 b6 01 35 02 78 02 74 01 16 02     3.......5.x.t...
    153c:	c6 01 9f 02 20 02 6e 00 83 03 61 02 46 00 03 03     .... .n...a.F...
    154c:	42 02 9f 01 fa 01 bc 01 a9 02 c3 01 b7 01 f1 01     B...............
    155c:	56 02 96 02 70 00 ac 02 4e 03 2d 00 6f 02 bd 02     V...p...N.-.o...
    156c:	6b 01 3a 02 86 01 6d 02 51 02 68 01 f2 01 37 02     k.:...m.Q.h...7.
    157c:	c0 02 d7 00 be 01 d3 03 a0 00 9d 01 29 03 5b 01     ............).[.
    158c:	43 02 ab 01 e3 01 d5 02 66 01 b0 01 42 02 b2 02     C.......f...B...
    159c:	65 01 0c 01 c6 03 7c 01 d6 00 49 03 92 01 09 02     e.....|...I.....
    15ac:	13 02 52 01 06 03 cc 01 42 01 52 02 9b 02 da 01     ..R.....B.R.....
    15bc:	c3 00 3d 03 71 02 68 00 fe 02 09 02 aa 01 82 02     ..=.q.h.........
    15cc:	03 01 c0 02 7c 02 e2 00 35 02 a2 02 19 02 dd 00     ....|...5.......
    15dc:	7b 02 26 03 80 00 58 02 92 02 5d 01 bc 02 1e 01     {.&...X...].....
    15ec:	17 02 2f 03 d3 00 cf 01 cb 02 2c 02 2b 01 cf 01     ../.......,.+...
    15fc:	62 03 0f 01 98 01 eb 02 51 01 a4 02 93 01 51 01     b.......Q.....Q.
    160c:	93 03 3b 01 2f 01 f4 02 3c 02 71 01 72 01 24 03     ..;./...<.q.r.$.
    161c:	d6 01 0d 01 e7 02 91 01 4c 02 2c 02 bf 00 73 03     ........L.,...s.
    162c:	09 02 91 00 e7 02 70 02 90 01 69 01 a0 02 80 02     ......p...i.....
    163c:	ee 00 84 02 fc 01 e9 01 a5 02 97 00 d4 02 f9 02     ................
    164c:	40 00 7f 02 ce 02 8d 01 8e 01 1f 02 cb 02 43 01     @.............C.
    165c:	f2 01 56 02 af 01 d3 02 e1 00 f2 01 b1 03 72 00     ..V...........r.
    166c:	c3 01 36 03 8f 01 ac 01 dc 01 a9 02 d9 01 7b 01     ..6...........{.
    167c:	6a 02 b8 01 b5 02 70 01 20 01 e9 03 28 01 e8 00     j.....p. ...(...
    168c:	6d 03 c2 01 9f 01 e4 01 41 02 63 02 5d 01 28 02     m.......A.c.].(.
    169c:	f0 01 73 02 01 02 a5 00 91 03 2b 02 3f 00 3f 03     ..s.......+.?.?.
    16ac:	36 02 6a 01 16 02 d8 01 9b 02 a8 01 b5 01 25 02     6.j...........%.
    16bc:	43 02 5f 02 9c 00 d1 02 20 03 11 00 a2 02 cf 02     C._..... .......
    16cc:	34 01 3e 02 ab 01 6b 02 38 02 54 01 22 02 43 02     4.>...k.8.T.".C.
    16dc:	7c 02 ea 00 f5 01 b4 03 76 00 be 01 4f 03 31 01     |.......v...O.1.
    16ec:	2e 02 d0 01 ef 01 c2 02 46 01 d1 01 6b 02 72 02     ........F...k.r.
    16fc:	58 01 4d 01 bc 03 4a 01 e2 00 78 03 7e 01 e2 01     X.M...J...x.~...
    170c:	2c 02 6c 01 fc 02 a6 01 4c 01 8d 02 71 02 ad 01     ,.l.....L...q...
    171c:	01 01 4c 03 3f 02 61 00 2a 03 0f 02 7d 01 86 02     ..L.?.a.*...}...
    172c:	26 01 c2 02 57 02 d5 00 74 02 97 02 d6 01 09 01     &...W...t.......
    173c:	a2 02 fa 02 69 00 79 02 ab 02 38 01 a8 02 40 01     ....i.y...8...@.
    174c:	29 02 11 03 b4 00 03 02 e2 02 e2 01 39 01 09 02     )...........9...
    175c:	45 03 ee 00 a9 01 0e 03 40 01 7e 02 aa 01 72 01     E.......@.~...r.
    176c:	7f 03 10 01 50 01 25 03 fe 01 5d 01 b3 01 1c 03     ....P.%...].....
    177c:	af 01 0f 01 09 03 98 01 20 02 2e 02 ea 00 6f 03     ........ .....o.
    178c:	d8 01 99 00 27 03 4b 02 5e 01 a2 01 b0 02 58 02     ....'.K.^.....X.
    179c:	e4 00 9d 02 16 02 c4 01 8e 02 c4 00 e4 02 ca 02     ................
    17ac:	31 00 bf 02 ca 02 49 01 b1 01 46 02 aa 02 2e 01     1.....I...F.....
    17bc:	fe 01 7a 02 9e 01 a6 02 03 01 16 02 8a 03 4f 00     ..z...........O.
    17cc:	f6 01 51 03 4c 01 b1 01 11 02 97 02 be 01 7a 01     ..Q.L.........z.
    17dc:	8c 02 c0 01 7e 02 7b 01 54 01 d2 03 f8 00 07 01     ....~.{.T.......
    17ec:	9d 03 8f 01 85 01 19 02 43 02 46 02 50 01 41 02     ........C.F.P.A.
    17fc:	0f 02 42 02 ef 01 e1 00 90 03 f4 01 48 00 79 03     ..B.........H.y.
    180c:	1c 02 39 01 3f 02 ef 01 82 02 94 01 bf 01 52 02     ..9.?.........R.
    181c:	25 02 31 02 d1 00 e9 02 ea 02 04 00 d9 02 d2 02     %.1.............
    182c:	fb 00 4f 02 d2 01 5b 02 1f 02 4e 01 50 02 41 02     ..O...[...N.P.A.
    183c:	3c 02 0b 01 26 02 87 03 56 00 e9 01 6a 03 ff 00     <...&...V...j...
    184c:	23 02 fc 01 f0 01 a9 02 33 01 f5 01 85 02 31 02     #.......3.....1.
    185c:	59 01 8e 01 a2 03 1c 01 fc 00 a1 03 5f 01 c0 01     Y..........._...
    186c:	50 02 7f 01 e7 02 8a 01 60 01 bc 02 3d 02 8d 01     P.......`...=...
    187c:	45 01 4c 03 09 02 69 00 56 03 07 02 50 01 96 02     E.L...i.V...P...
    188c:	48 01 b8 02 35 02 d6 00 ad 02 7f 02 9a 01 41 01     H...5.........A.
    189c:	be 02 c5 02 5f 00 a0 02 b9 02 0f 01 a0 02 68 01     ...._.........h.
    18ac:	2f 02 ee 02 a3 00 39 02 e9 02 9a 01 56 01 3e 02     /.....9.....V.>.
    18bc:	1a 03 d3 00 c7 01 2a 03 25 01 60 02 cb 01 8b 01     ......*.%.`.....
    18cc:	62 03 f0 00 78 01 49 03 ba 01 58 01 f6 01 05 03     b...x.I...X.....
    18dc:	87 01 1f 01 29 03 91 01 f6 01 3d 02 13 01 5e 03     ....).....=...^.
    18ec:	ae 01 af 00 5d 03 1b 02 37 01 e4 01 b4 02 2a 02     ....]...7.....*.
    18fc:	e6 00 ba 02 23 02 9c 01 84 02 f4 00 e6 02 9a 02     ....#...........
    190c:	31 00 fc 02 b7 02 0c 01 e2 01 65 02 7e 02 22 01     1.........e.~.".
    191c:	14 02 94 02 84 01 83 02 2e 01 2e 02 5b 03 3b 00     ............[.;.
    192c:	2e 02 5c 03 07 01 c4 01 45 02 77 02 a6 01 85 01     ..\.....E.w.....
    193c:	ab 02 bc 01 4d 02 93 01 83 01 ae 03 d2 00 31 01     ....M.........1.
    194c:	c1 03 53 01 77 01 55 02 38 02 24 02 51 01 5c 02     ..S.w.U.8.$.Q.\.
    195c:	21 02 10 02 ea 01 1d 01 7f 03 c0 01 60 00 ab 03     !...........`...
    196c:	f6 01 10 01 72 02 fc 01 5f 02 8a 01 d1 01 73 02     ....r..._.....s.
    197c:	00 02 0f 02 0e 01 f3 02 b0 02 06 00 10 03 c6 02     ................
    198c:	c4 00 6c 02 f5 01 40 02 0b 02 55 01 78 02 34 02     ..l...@...U.x.4.
    199c:	04 02 38 01 4c 02 50 03 43 00 1b 02 77 03 c9 00     ..8.L.P.C...w...
    19ac:	25 02 2a 02 e4 01 8d 02 2e 01 1b 02 92 02 f0 01     %.*.............
    19bc:	6a 01 cb 01 7a 03 f6 00 24 01 c0 03 36 01 a9 01     j...z...$...6...
    19cc:	7b 02 88 01 ca 02 79 01 7b 01 df 02 05 02 7c 01     {.....y.{.....|.
    19dc:	8d 01 3c 03 d3 01 80 00 7e 03 f2 01 29 01 b2 02     ..<.....~...)...
    19ec:	65 01 a1 02 1a 02 e4 00 dc 02 5c 02 6a 01 82 01     e.........\.j...
    19fc:	ce 02 89 02 63 00 cb 02 b8 02 e4 00 a4 02 91 01     ....c...........
    1a0c:	27 02 cb 02 a1 00 6c 02 e2 02 57 01 80 01 6c 02     '.....l...W...l.
    1a1c:	e3 02 c2 00 ed 01 3a 03 03 01 4c 02 f3 01 98 01     ......:...L.....
    1a2c:	3e 03 dd 00 a5 01 5d 03 74 01 61 01 38 02 e0 02     >.....].t.a.8...
    1a3c:	63 01 3c 01 43 03 80 01 d2 01 56 02 35 01 41 03     c.<.C.....V.5.A.
    1a4c:	8c 01 cf 00 86 03 e3 01 1e 01 2b 02 aa 02 f8 01     ..........+.....
    1a5c:	f6 00 d8 02 24 02 75 01 85 02 24 01 d9 02 6d 02     ....$.u...$...m.
    1a6c:	40 00 31 03 96 02 d7 00 1c 02 7a 02 49 02 22 01     @.1.......z.I.".
    1a7c:	30 02 a3 02 65 01 6c 02 5e 01 3a 02 29 03 36 00     0...e.l.^.:.).6.
    1a8c:	66 02 57 03 c6 00 e5 01 74 02 4b 02 93 01 9c 01     f.W.....t.K.....
    1a9c:	c2 02 ad 01 23 02 b5 01 a7 01 80 03 b8 00 63 01     ....#.........c.
    1aac:	d6 03 14 01 78 01 92 02 20 02 03 02 5f 01 75 02     ....x... ..._.u.
    1abc:	25 02 e0 01 f3 01 55 01 60 03 94 01 85 00 d3 03     %.....U.`.......
    1acc:	c7 01 f3 00 ad 02 ff 01 36 02 8b 01 e8 01 88 02     ........6.......
    1adc:	d7 01 fa 01 4d 01 ee 02 76 02 19 00 42 03 ac 02     ....M...v...B...
    1aec:	94 00 96 02 11 02 19 02 fe 01 66 01 97 02 1c 02     ..........f.....
    1afc:	d6 01 6d 01 66 02 12 03 3f 00 51 02 75 03 93 00     ..m.f...?.Q.u...
    1b0c:	35 02 57 02 cc 01 73 02 36 01 3c 02 91 02 b5 01     5.W...s.6.<.....
    1b1c:	87 01 01 02 45 03 da 00 55 01 d2 03 07 01 9d 01     ....E...U.......
    1b2c:	ac 02 86 01 a8 02 74 01 9a 01 f3 02 cb 01 78 01     ......t.......x.
    1b3c:	d4 01 1d 03 a2 01 a6 00 9f 03 d2 01 09 01 d7 02     ................
    1b4c:	7a 01 81 02 08 02 fa 00 00 03 31 02 47 01 c9 01     z.........1.G...
    1b5c:	cf 02 4a 02 76 00 f5 02 aa 02 bc 00 b4 02 b7 01     ..J.v...........
    1b6c:	13 02 ac 02 ac 00 98 02 ce 02 1d 01 b6 01 8e 02     ................
    1b7c:	a2 02 be 00 1a 02 3c 03 de 00 45 02 1e 02 98 01     ......<...E.....
    1b8c:	16 03 d9 00 d2 01 62 03 32 01 79 01 75 02 ad 02     ......b.2.y.u...
    1b9c:	47 01 65 01 54 03 66 01 b8 01 78 02 4d 01 1b 03     G.e.T.f...x.M...
    1bac:	77 01 f6 00 a2 03 a6 01 13 01 73 02 91 02 c8 01     w.........s.....
    1bbc:	14 01 f2 02 18 02 52 01 92 02 4f 01 c0 02 46 02     ......R...O...F.
    1bcc:	5b 00 5c 03 6c 02 b0 00 5f 02 82 02 0f 02 2f 01     [.\.l..._...../.
    1bdc:	50 02 a4 02 44 01 61 02 8f 01 37 02 f6 02 41 00     P...D.a...7...A.
    1bec:	9a 02 44 03 8c 00 12 02 9a 02 14 02 8b 01 bc 01     ..D.............
    1bfc:	ce 02 97 01 03 02 de 01 c0 01 4b 03 ad 00 98 01     ..........K.....
    1c0c:	db 03 d6 00 87 01 cc 02 fa 01 e6 01 79 01 8a 02     ............y...
    1c1c:	1e 02 b6 01 07 02 86 01 36 03 72 01 b4 00 ed 03     ........6.r.....
    1c2c:	90 01 e4 00 eb 02 f4 01 0a 02 9a 01 00 02 90 02     ................
    1c3c:	af 01 f3 01 8a 01 da 02 40 02 3a 00 6d 03 86 02     ........@.:.m...
    1c4c:	6e 00 c8 02 23 02 eb 01 fc 01 7e 01 aa 02 ff 01     n...#.....~.....
    1c5c:	b5 01 a8 01 71 02 d1 02 4b 00 85 02 63 03 61 00     ....q...K...c.a.
    1c6c:	51 02 7f 02 a8 01 5e 02 49 01 57 02 85 02 83 01     Q.....^.I.W.....
    1c7c:	af 01 2c 02 06 03 cc 00 8c 01 d5 03 d6 00 9f 01     ..,.............
    1c8c:	dd 02 77 01 85 02 7d 01 b8 01 fa 02 95 01 83 01     ..w...}.........
    1c9c:	14 02 f0 02 79 01 d7 00 b3 03 a8 01 f5 00 01 03     ....y...........
    1cac:	84 01 57 02 ff 01 16 01 13 03 ff 01 31 01 0d 02     ..W.........1...
    1cbc:	bb 02 08 02 97 00 13 03 89 02 99 00 c8 02 d2 01     ................
    1ccc:	ef 01 8d 02 c0 00 b2 02 a8 02 ed 00 ed 01 9a 02     ................
    1cdc:	54 02 c7 00 40 02 25 03 b6 00 40 02 3f 02 86 01     T...@.%...@.?...
    1cec:	e4 02 e0 00 f2 01 49 03 f2 00 95 01 9b 02 62 02     ......I.......b.
    1cfc:	30 01 8e 01 46 03 3e 01 a0 01 8f 02 52 01 de 02     0...F.>.....R...
    1d0c:	67 01 1a 01 96 03 61 01 11 01 a7 02 5a 02 92 01     g.....a.....Z...
    1d1c:	36 01 f0 02 f2 01 2e 01 96 02 67 01 89 02 19 02     6.........g.....
    1d2c:	7d 00 5f 03 28 02 91 00 8f 02 67 02 c3 01 3f 01     }._.(.....g...?.
    1d3c:	59 02 82 02 1c 01 4d 02 ae 01 14 02 ae 02 56 00     Y.....M.......V.
    1d4c:	ac 02 06 03 59 00 32 02 9a 02 c3 01 7e 01 cf 01     ....Y.2.....~...
    1d5c:	b2 02 6e 01 dc 01 f5 01 b9 01 f1 02 aa 00 b9 01     ..n.............
    1d6c:	a5 03 95 00 91 01 dd 02 b4 01 bb 01 8b 01 76 02     ..............v.
    1d7c:	f5 01 82 01 0a 02 98 01 dd 02 4c 01 de 00 c5 03     ..........L.....
    1d8c:	46 01 d9 00 00 03 c3 01 c7 01 9e 01 fa 01 68 02     F.............h.
    1d9c:	75 01 dd 01 aa 01 93 02 f5 01 63 00 59 03 35 02     u.........c.Y.5.
    1dac:	50 00 d5 02 09 02 9e 01 e7 01 82 01 87 02 c3 01     P...............
    1dbc:	89 01 c6 01 48 02 69 02 61 00 89 02 0f 03 35 00     ....H.i.a.....5.
    1dcc:	50 02 74 02 62 01 2c 02 4f 01 3f 02 47 02 46 01     P.t.b.,.O.?.G.F.
    1ddc:	be 01 22 02 92 02 bf 00 a7 01 85 03 9a 00 91 01     ..".............
    1dec:	d5 02 44 01 3a 02 76 01 b0 01 bd 02 4c 01 7c 01     ..D.:.v.....L.|.
    1dfc:	21 02 85 02 42 01 fe 00 75 03 5e 01 dd 00 f4 02     !...B...u.^.....
    1e0c:	66 01 05 02 df 01 1e 01 e0 02 af 01 15 01 26 02     f.............&.
    1e1c:	6d 02 af 01 b9 00 f3 02 36 02 79 00 b4 02 c4 01     m.......6.y.....
    1e2c:	a7 01 50 02 ce 00 93 02 54 02 be 00 04 02 6e 02     ..P.....T.....n.
    1e3c:	e7 01 d0 00 3e 02 d1 02 8b 00 25 02 36 02 54 01     ....>.....%.6.T.
    1e4c:	8e 02 e3 00 ec 01 f7 02 b4 00 a1 01 8d 02 f5 01     ................
    1e5c:	16 01 a2 01 fe 02 07 01 7f 01 82 02 39 01 80 02     ............9...
    1e6c:	51 01 2b 01 4e 03 14 01 0e 01 ac 02 ff 01 56 01     Q.+.N.........V.
    1e7c:	50 01 bf 02 b0 01 08 01 7f 02 62 01 32 02 e2 01     P.........b.2...
    1e8c:	9b 00 2b 03 cf 01 7e 00 9c 02 26 02 6e 01 4b 01     ..+...~...&.n.K.
    1e9c:	43 02 3c 02 f1 00 2b 02 b2 01 d4 01 57 02 70 00     C.<...+.....W.p.
    1eac:	95 02 a6 02 34 00 3e 02 73 02 65 01 71 01 cf 01     ....4.>.s.e.q...
    1ebc:	71 02 3b 01 b2 01 f6 01 96 01 88 02 ae 00 c2 01     q.;.............
    1ecc:	47 03 5e 00 96 01 c9 02 5e 01 8f 01 95 01 46 02     G.^.....^.....F.
    1edc:	ba 01 52 01 00 02 90 01 73 02 2c 01 ff 00 76 03     ..R.....s.,...v.
    1eec:	fc 00 d5 00 f7 02 80 01 83 01 a1 01 e0 01 2a 02     ..............*.
    1efc:	3f 01 c6 01 b2 01 3a 02 af 01 8b 00 25 03 db 01     ?.....:.....%...
    1f0c:	41 00 d0 02 d9 01 51 01 d5 01 7d 01 4e 02 86 01     A.....Q...}.N...
    1f1c:	65 01 d3 01 0c 02 06 02 7d 00 78 02 ab 02 17 00     e.......}.x.....
    1f2c:	4a 02 54 02 19 01 ff 01 53 01 15 02 03 02 17 01     J.T.....S.......
    1f3c:	c6 01 04 02 23 02 be 00 b5 01 26 03 69 00 8a 01     ....#.....&.i...
    1f4c:	bd 02 0a 01 f8 01 74 01 9c 01 77 02 11 01 7a 01     ......t...w...z.
    1f5c:	1c 02 1c 02 1b 01 20 01 28 03 19 01 d2 00 df 02     ...... .(.......
    1f6c:	3d 01 b9 01 c9 01 20 01 a1 02 69 01 06 01 2f 02     =..... ...i.../.
    1f7c:	19 02 65 01 dc 00 c4 02 e1 01 66 00 9f 02 a9 01     ..e.......f.....
    1f8c:	60 01 1f 02 db 00 66 02 03 02 a1 00 11 02 35 02     `.....f.......5.
    1f9c:	87 01 e2 00 31 02 76 02 6c 00 10 02 20 02 1e 01     ....1.v.l... ...
    1fac:	45 02 ec 00 d8 01 a0 02 87 00 ac 01 6d 02 90 01     E...........m...
    1fbc:	0a 01 af 01 ab 02 d6 00 6a 01 6c 02 16 01 29 02     ........j.l...).
    1fcc:	45 01 31 01 fb 02 d6 00 12 01 9f 02 a2 01 28 01     E.1...........(.
    1fdc:	67 01 81 02 6f 01 f0 00 65 02 4f 01 df 01 b8 01     g...o...e.O.....
    1fec:	b4 00 e9 02 7f 01 78 00 9b 02 dc 01 27 01 5b 01     ......x.....'.[.
    1ffc:	22 02 f0 01 d1 00 0f 02 a8 01 91 01 0f 02 8c 00     "...............
    200c:	6f 02 47 02 20 00 42 02 3d 02 12 01 6b 01 c7 01     o.G. .B.=...k...
    201c:	28 02 0f 01 93 01 ec 01 6a 01 2a 02 b9 00 bd 01     (.......j.*.....
    202c:	e3 02 38 00 9d 01 a5 02 0d 01 6f 01 9b 01 0b 02     ..8.......o.....
    203c:	81 01 2f 01 f3 01 79 01 10 02 1a 01 16 01 1c 03     ../...y.........
    204c:	be 00 db 00 df 02 39 01 4c 01 a5 01 bc 01 e7 01     ......9.L.......
    205c:	16 01 b2 01 ab 01 e3 01 79 01 b0 00 e2 02 87 01     ........y.......
    206c:	41 00 c0 02 a0 01 0e 01 ca 01 70 01 0d 02 51 01     A.........p...Q.
    207c:	4b 01 d3 01 c9 01 b3 01 9d 00 58 02 48 02 09 00     K.........X.H...
    208c:	42 02 27 02 d6 00 dd 01 53 01 e1 01 c3 01 f6 00     B.'.....S.......
    209c:	c6 01 d9 01 c0 01 c6 00 b7 01 c0 02 46 00 87 01     ............F...
    20ac:	98 02 cf 00 c1 01 73 01 7e 01 2e 02 e6 00 77 01     ......s.~.....w.
    20bc:	06 02 b9 01 02 01 3b 01 d1 02 dd 00 d1 00 bf 02     ......;.........
    20cc:	0e 01 78 01 b9 01 19 01 59 02 30 01 fe 00 27 02     ..x.....Y.0...'.
    20dc:	c3 01 2b 01 fe 00 88 02 8f 01 61 00 85 02 82 01     ..+.......a.....
    20ec:	20 01 f7 01 e3 00 2c 02 ba 01 92 00 11 02 f2 01      .....,.........
    20fc:	36 01 f7 00 17 02 19 02 59 00 fd 01 fe 01 e7 00     6.......Y.......
    210c:	07 02 f5 00 b7 01 4a 02 6b 00 b0 01 3e 02 35 01     ......J.k...>.5.
    211c:	06 01 b1 01 52 02 af 00 5c 01 4c 02 ed 00 de 01     ....R...\.L.....
    212c:	3f 01 2d 01 a2 02 a8 00 18 01 80 02 4a 01 07 01     ?.-.........J...
    213c:	79 01 3a 02 32 01 e2 00 47 02 31 01 93 01 98 01     y.:.2...G.1.....
    214c:	c5 00 9c 02 3a 01 7c 00 8a 02 8f 01 ee 00 6b 01     ....:.|.......k.
    215c:	f6 01 a4 01 bc 00 f4 01 90 01 4f 01 d3 01 a4 00     ..........O.....
    216c:	3b 02 ed 01 1c 00 3c 02 fd 01 cb 00 6c 01 b6 01     ;.....<.....l...
    217c:	d9 01 eb 00 7b 01 d7 01 38 01 db 01 c8 00 aa 01     ....{...8.......
    218c:	7e 02 21 00 a0 01 71 02 c3 00 59 01 9b 01 c9 01     ~.!...q...Y.....
    219c:	4b 01 18 01 de 01 57 01 b9 01 0f 01 21 01 ba 02     K.....W.....!...
    21ac:	8f 00 e4 00 b7 02 f3 00 22 01 a7 01 8f 01 a4 01     ........".......
    21bc:	f8 00 9e 01 95 01 90 01 51 01 cd 00 94 02 3c 01     ........Q.....<.
    21cc:	4a 00 a4 02 61 01 d7 00 c1 01 5a 01 c7 01 27 01     J...a.....Z...'.
    21dc:	38 01 c4 01 84 01 6f 01 ba 00 29 02 e8 01 08 00     8.....o...).....
    21ec:	33 02 ee 01 9c 00 c2 01 4d 01 a5 01 88 01 e0 00     3.......M.......
    21fc:	bc 01 a5 01 6b 01 d3 00 ab 01 58 02 31 00 85 01     ....k.....X.1...
    220c:	65 02 98 00 95 01 70 01 57 01 e5 01 c9 00 70 01     e.....p.W.....p.
    221c:	e0 01 60 01 f4 00 49 01 72 02 ad 00 d6 00 93 02     ..`...I.r.......
    222c:	db 00 41 01 ab 01 08 01 0e 02 03 01 f9 00 0e 02     ..A.............
    223c:	70 01 00 01 18 01 42 02 44 01 65 00 63 02 53 01     p.....B.D.e.c.S.
    224c:	e8 00 d7 01 e4 00 ea 01 79 01 8c 00 03 02 aa 01     ........y.......
    225c:	f5 00 0c 01 f0 01 be 01 51 00 e7 01 d1 01 b4 00     ........Q.......
    226c:	d4 01 fa 00 8c 01 f8 01 5c 00 ac 01 03 02 e8 00     ........\.......
    227c:	09 01 a7 01 f5 01 91 00 51 01 20 02 c2 00 9f 01     ........Q. .....
    228c:	3a 01 1c 01 48 02 88 00 1c 01 52 02 fa 00 f2 00     :...H.....R.....
    229c:	81 01 ec 01 fc 00 dd 00 21 02 0b 01 51 01 7e 01     ........!...Q.~.
    22ac:	cc 00 48 02 02 01 85 00 68 02 42 01 c4 00 76 01     ..H.....h.B...v.
    22bc:	c0 01 5c 01 b1 00 d6 01 6d 01 13 01 a2 01 b6 00     ..\.....m.......
    22cc:	fd 01 9c 01 21 00 29 02 b7 01 94 00 6d 01 99 01     ....!.).....m...
    22dc:	8a 01 d1 00 66 01 b6 01 05 01 98 01 d4 00 8a 01     ....f...........
    22ec:	1c 02 19 00 9c 01 32 02 84 00 49 01 91 01 81 01     ......2...I.....
    22fc:	1d 01 07 01 c0 01 2e 01 6e 01 0a 01 1f 01 55 02     ........n.....U.
    230c:	6e 00 ee 00 80 02 b3 00 03 01 a3 01 5a 01 65 01     n...........Z.e.
    231c:	e4 00 86 01 73 01 46 01 32 01 df 00 3e 02 fe 00     ....s.F.2...>...
    232c:	59 00 7b 02 20 01 ad 00 b6 01 3a 01 80 01 06 01     Y.{. .....:.....
    233c:	26 01 a7 01 42 01 39 01 d1 00 ef 01 90 01 11 00     &...B.9.........
    234c:	1a 02 ad 01 6d 00 ab 01 3e 01 65 01 55 01 d2 00     ....m...>.e.U...
    235c:	a5 01 6c 01 26 01 df 00 91 01 f3 01 28 00 7e 01     ..l.&.......(.~.
    236c:	26 02 67 00 72 01 66 01 28 01 a2 01 b5 00 61 01     &.g.r.f.(.....a.
    237c:	b0 01 14 01 ec 00 4a 01 10 02 88 00 dd 00 5b 02     ......J.......[.
    238c:	a9 00 16 01 9b 01 ef 00 c2 01 e1 00 f3 00 e6 01     ................
    239c:	24 01 e2 00 27 01 f3 01 04 01 6f 00 38 02 1e 01     $...'.....o.8...
    23ac:	bb 00 b9 01 dc 00 a5 01 43 01 8a 00 e6 01 62 01     ........C.....b.
    23bc:	c3 00 1b 01 bd 01 68 01 52 00 cc 01 9a 01 89 00     ......h.R.......
    23cc:	a8 01 f8 00 58 01 ad 01 57 00 9c 01 c1 01 aa 00     ....X...W.......
    23dc:	0c 01 90 01 9a 01 7e 00 46 01 eb 01 98 00 6a 01     ......~.F.....j.
    23ec:	32 01 02 01 f0 01 74 00 1b 01 17 02 b6 00 e5 00     2.....t.........
    23fc:	7c 01 9a 01 d0 00 da 00 f1 01 e1 00 1a 01 67 01     |.............g.
    240c:	c8 00 f3 01 d6 00 8f 00 37 02 fb 00 a7 00 78 01     ........7.....x.
    241c:	82 01 1a 01 ac 00 b2 01 42 01 de 00 7a 01 be 00     ........B...z...
    242c:	b8 01 56 01 2d 00 08 02 6e 01 6b 00 6b 01 72 01     ..V.-...n.k.k.r.
    243c:	3e 01 bf 00 4f 01 8a 01 d5 00 61 01 db 00 60 01     >...O.....a...`.
    244c:	c1 01 1b 00 8e 01 e9 01 53 00 3e 01 7b 01 39 01     ........S.>.{.9.
    245c:	f7 00 fa 00 98 01 01 01 2f 01 04 01 10 01 f3 01     ......../.......
    246c:	5a 00 f2 00 3d 02 7b 00 ed 00 95 01 20 01 2b 01     Z...=.{..... .+.
    247c:	d6 00 68 01 48 01 06 01 1a 01 e5 00 e6 01 cc 00     ..h.H...........
    248c:	6a 00 43 02 e1 00 8f 00 a7 01 13 01 3d 01 ed 00     j.C.........=...
    249c:	13 01 7f 01 04 01 0f 01 de 00 ad 01 43 01 21 00     ............C.!.
    24ac:	f5 01 68 01 4a 00 95 01 25 01 24 01 29 01 c6 00     ..h.J...%.$.)...
    24bc:	83 01 31 01 ef 00 e8 00 6b 01 95 01 29 00 6f 01     ..1.....k...).o.
    24cc:	df 01 40 00 54 01 54 01 f4 00 64 01 a8 00 4a 01     ..@.T.T...d...J.
    24dc:	79 01 d5 00 e7 00 3d 01 b1 01 70 00 e1 00 18 02     y.....=...p.....
    24ec:	7b 00 f4 00 85 01 ce 00 7a 01 c9 00 e9 00 b3 01     {.......z.......
    24fc:	e1 00 cc 00 2a 01 a1 01 ce 00 7c 00 02 02 e8 00     ....*.....|.....
    250c:	98 00 9b 01 cb 00 5f 01 16 01 8a 00 bb 01 1e 01     ......_.........
    251c:	9f 00 22 01 82 01 1c 01 59 00 a9 01 5d 01 66 00     ..".....Y...].f.
    252c:	81 01 ee 00 21 01 6a 01 58 00 80 01 7b 01 7b 00     ....!.j.X...{.{.
    253c:	0d 01 6c 01 44 01 73 00 37 01 ac 01 73 00 3e 01     ..l.D.s.7...s.>.
    254c:	24 01 e0 00 9f 01 69 00 11 01 d3 01 7f 00 dc 00     $.....i.........
    255c:	6a 01 49 01 ad 00 d8 00 b9 01 b7 00 ed 00 4f 01     j.I...........O.
    256c:	ba 00 9f 01 b5 00 95 00 fa 01 bc 00 94 00 6f 01     ..............o.
    257c:	40 01 e1 00 ab 00 87 01 11 01 b3 00 55 01 bb 00     @...........U...
    258c:	70 01 1a 01 3b 00 d9 01 27 01 4f 00 62 01 43 01     p...;...'.O.b.C.
    259c:	f9 00 b3 00 35 01 57 01 aa 00 33 01 da 00 2e 01     ....5.W...3.....
    25ac:	6f 01 23 00 75 01 9d 01 2f 00 31 01 5a 01 f3 00     o.#.u.../.1.Z...
    25bc:	d8 00 ec 00 68 01 d4 00 fc 00 fb 00 f7 00 97 01     ....h...........
    25cc:	4f 00 f0 00 f1 01 4e 00 dc 00 7c 01 e5 00 fa 00     O.....N...|.....
    25dc:	cb 00 42 01 18 01 d2 00 04 01 dd 00 8e 01 a6 00     ..B.............
    25ec:	77 00 00 02 a8 00 7c 00 8f 01 e6 00 ff 00 da 00     w.....|.........
    25fc:	fb 00 4e 01 cf 00 ed 00 df 00 66 01 01 01 33 00     ..N.......f...3.
    260c:	c5 01 23 01 33 00 7b 01 04 01 e7 00 05 01 ba 00     ..#.3.{.........
    261c:	57 01 f9 00 c4 00 e8 00 3c 01 40 01 30 00 57 01     W.......<.@.0.W.
    262c:	92 01 23 00 39 01 38 01 c1 00 2e 01 9f 00 2a 01     ..#.9.8.......*.
    263c:	3e 01 a4 00 e0 00 24 01 57 01 60 00 df 00 cd 01     >.....$.W.`.....
    264c:	54 00 d9 00 68 01 a9 00 38 01 b6 00 d8 00 78 01     T...h...8.....x.
    265c:	ab 00 bb 00 1e 01 50 01 a4 00 86 00 c2 01 b4 00     ......P.........
    266c:	7f 00 79 01 b2 00 1d 01 f0 00 87 00 86 01 e1 00     ..y.............
    267c:	86 00 1c 01 41 01 db 00 62 00 7e 01 1e 01 4c 00     ....A...b.~...L.
    268c:	5c 01 da 00 e9 00 30 01 5a 00 59 01 36 01 5a 00     \.....0.Z.Y.6.Z.
    269c:	07 01 3f 01 f7 00 6f 00 21 01 68 01 54 00 18 01     ..?...o.!.h.T...
    26ac:	0f 01 b9 00 55 01 64 00 fd 00 89 01 56 00 d3 00     ....U.d.....V...
    26bc:	4b 01 fc 00 92 00 d2 00 7a 01 8f 00 c8 00 33 01     K.......z.....3.
    26cc:	a3 00 51 01 9d 00 95 00 b4 01 87 00 87 00 58 01     ..Q...........X.
    26dc:	fe 00 b2 00 aa 00 56 01 df 00 90 00 31 01 af 00     ......V.....1...
    26ec:	2a 01 e9 00 47 00 9f 01 e5 00 3e 00 4f 01 0d 01     *...G.....>.O...
    26fc:	bc 00 aa 00 15 01 1e 01 86 00 0b 01 cf 00 f8 00     ................
    270c:	28 01 2e 00 50 01 50 01 19 00 20 01 30 01 b5 00     (...P.P... .0...
    271c:	bf 00 db 00 32 01 aa 00 d3 00 eb 00 d5 00 43 01     ....2.........C.
    272c:	4b 00 e3 00 9f 01 2c 00 cd 00 58 01 ac 00 cf 00     K.....,...X.....
    273c:	bf 00 16 01 e7 00 a8 00 ed 00 cb 00 3b 01 89 00     ............;...
    274c:	7f 00 b4 01 78 00 6f 00 6d 01 b7 00 ca 00 c8 00     ....x.o.m.......
    275c:	de 00 18 01 a2 00 d0 00 d5 00 20 01 cb 00 43 00     .......... ...C.
    276c:	8a 01 e2 00 26 00 5b 01 dc 00 af 00 e5 00 aa 00     ....&.[.........
    277c:	24 01 c7 00 a2 00 de 00 07 01 f7 00 39 00 34 01     $...........9.4.
    278c:	45 01 11 00 1c 01 12 01 90 00 fe 00 94 00 01 01     E...............
    279c:	04 01 7f 00 d3 00 ff 00 06 01 57 00 d4 00 7d 01     ..........W...}.
    27ac:	36 00 c2 00 42 01 82 00 fd 00 a5 00 c0 00 39 01     6...B.........9.
    27bc:	7f 00 ac 00 06 01 03 01 83 00 8b 00 7b 01 86 00     ............{...
    27cc:	6d 00 51 01 93 00 e0 00 d0 00 7f 00 49 01 ab 00     m.Q.........I...
    27dc:	73 00 0a 01 ff 00 a6 00 6a 00 49 01 e0 00 3b 00     s.......j.I...;.
    27ec:	34 01 be 00 b4 00 fd 00 5a 00 28 01 f5 00 44 00     4.......Z.(...D.
    27fc:	f8 00 0a 01 b5 00 6c 00 03 01 22 01 3d 00 f4 00     ......l...".=...
    280c:	f1 00 91 00 13 01 60 00 e0 00 3f 01 39 00 c6 00     ......`...?.9...
    281c:	21 01 b8 00 7f 00 c5 00 36 01 6c 00 aa 00 10 01     !.......6.l.....
    282c:	87 00 09 01 89 00 8d 00 68 01 5e 00 7d 00 35 01     ........h.^.}.5.
    283c:	be 00 8c 00 a4 00 1e 01 ae 00 75 00 0c 01 99 00     ..........u.....
    284c:	e8 00 c0 00 4d 00 5d 01 ac 00 35 00 31 01 d5 00     ....M.]...5.1...
    285c:	8b 00 a0 00 ef 00 e4 00 69 00 e5 00 ba 00 c3 00     ........i.......
    286c:	ea 00 37 00 21 01 06 01 0d 00 07 01 fd 00 7f 00     ..7.!...........
    287c:	a9 00 c4 00 f7 00 85 00 af 00 d3 00 ae 00 fa 00     ................
    288c:	49 00 cd 00 4c 01 16 00 bc 00 29 01 79 00 ac 00     I...L.....).y...
    289c:	b0 00 e4 00 b7 00 86 00 d2 00 af 00 f0 00 74 00     ..............t.
    28ac:	7e 00 63 01 51 00 65 00 40 01 88 00 9d 00 b5 00     ~.c.Q.e.@.......
    28bc:	bb 00 e0 00 7e 00 b4 00 bf 00 dc 00 9f 00 4d 00     ....~.........M.
    28cc:	47 01 a8 00 21 00 32 01 b0 00 80 00 c8 00 95 00     G...!.2.........
    28dc:	ec 00 9a 00 86 00 ca 00 d0 00 b9 00 41 00 08 01     ............A...
    28ec:	fa 00 07 00 fb 00 e5 00 65 00 d3 00 86 00 d3 00     ........e.......
    28fc:	cc 00 63 00 bf 00 d3 00 c0 00 52 00 c0 00 2c 01     ..c.......R...,.
    290c:	21 00 ab 00 12 01 5d 00 c9 00 94 00 a2 00 f9 00     !.....].........
    291c:	5e 00 9a 00 e2 00 bd 00 6b 00 88 00 30 01 5f 00     ^.......k...0._.
    292c:	5f 00 21 01 71 00 ab 00 b2 00 70 00 09 01 7f 00     _.!.q.....p.....
    293c:	64 00 eb 00 c0 00 7c 00 6c 00 0e 01 a7 00 30 00     d.....|.l.....0.
    294c:	08 01 9c 00 85 00 cf 00 55 00 f1 00 bb 00 36 00     ........U.....6.
    295c:	de 00 d1 00 80 00 68 00 dc 00 dd 00 2c 00 d0 00     ......h.....,...
    296c:	ca 00 6a 00 d9 00 59 00 bb 00 f7 00 26 00 b2 00     ..j...Y.....&...
    297c:	ee 00 7e 00 6e 00 b0 00 f0 00 4f 00 8f 00 e6 00     ..~.n.....O.....
    298c:	68 00 cb 00 77 00 7c 00 1a 01 3f 00 71 00 06 01     h...w.|...?.q...
    299c:	85 00 6e 00 98 00 e2 00 81 00 60 00 e1 00 7d 00     ..n.......`...}.
    29ac:	ad 00 9c 00 4d 00 15 01 7b 00 30 00 06 01 9e 00     ....M...{.0.....
    29bc:	63 00 92 00 c2 00 ac 00 52 00 bf 00 9d 00 91 00     c.......R.......
    29cc:	b5 00 3b 00 eb 00 c3 00 09 00 e5 00 c7 00 53 00     ..;...........S.
    29dc:	93 00 a6 00 bc 00 65 00 90 00 b3 00 85 00 ba 00     ......e.........
    29ec:	46 00 ad 00 fb 00 0a 00 a6 00 f1 00 4d 00 8c 00     F...........M...
    29fc:	9a 00 b0 00 8a 00 6a 00 b1 00 8d 00 ae 00 61 00     ......j.......a.
    2a0c:	73 00 11 01 34 00 5b 00 09 01 5d 00 77 00 9e 00     s...4.[...].w...
    2a1c:	94 00 aa 00 60 00 96 00 9f 00 9f 00 7a 00 4e 00     ....`.......z.N.
    2a2c:	00 01 76 00 1f 00 00 01 82 00 5a 00 a9 00 7b 00     ..v.......Z...{.
    2a3c:	b3 00 74 00 6d 00 ab 00 99 00 86 00 44 00 d4 00     ..t.m.......D...
    2a4c:	b5 00 05 00 d3 00 b3 00 41 00 ab 00 73 00 a1 00     ........A...s...
    2a5c:	99 00 4d 00 a3 00 a3 00 85 00 4b 00 a1 00 dd 00     ..M.......K.....
    2a6c:	14 00 92 00 db 00 3c 00 9b 00 7e 00 7e 00 bb 00     ......<...~.~...
    2a7c:	45 00 83 00 b5 00 81 00 56 00 7a 00 e3 00 40 00     E.......V.z...@.
    2a8c:	52 00 e9 00 50 00 7d 00 93 00 5c 00 c7 00 5b 00     R...P.}...\...[.
    2a9c:	54 00 c1 00 86 00 5a 00 65 00 ce 00 74 00 29 00     T.....Z.e...t.).
    2aac:	d6 00 76 00 5c 00 a4 00 4a 00 b7 00 87 00 2c 00     ..v.\...J.....,.
    2abc:	b9 00 99 00 55 00 5f 00 ae 00 9c 00 22 00 a9 00     ....U._....."...
    2acc:	9e 00 48 00 a5 00 4f 00 90 00 b4 00 1b 00 96 00     ..H...O.........
    2adc:	b6 00 50 00 5d 00 92 00 ac 00 37 00 74 00 b5 00     ..P.].....7.t...
    2aec:	49 00 93 00 63 00 64 00 ce 00 2a 00 61 00 cd 00     I...c.d...*.a...
    2afc:	55 00 55 00 82 00 a5 00 5a 00 4d 00 b1 00 5e 00     U.U.....Z.M...^.
    2b0c:	79 00 7a 00 44 00 cc 00 54 00 2c 00 d1 00 6b 00     y.z.D...T.,...k.
    2b1c:	44 00 7d 00 92 00 78 00 3f 00 96 00 79 00 64 00     D.}...x.?...y.d.
    2b2c:	86 00 38 00 af 00 87 00 09 00 b9 00 8f 00 33 00     ..8...........3.
    2b3c:	7a 00 81 00 83 00 4a 00 70 00 8c 00 5d 00 84 00     z.....J.p...]...
    2b4c:	3f 00 85 00 b0 00 05 00 88 00 b4 00 2c 00 6e 00     ?...........,.n.
    2b5c:	7c 00 7b 00 62 00 51 00 8a 00 67 00 76 00 4e 00     |.{.b.Q...g.v.N.
    2b6c:	5e 00 c0 00 20 00 4d 00 c9 00 38 00 57 00 80 00     ^... .M...8.W...
    2b7c:	6a 00 77 00 47 00 74 00 78 00 6a 00 5a 00 46 00     j.w.G.t.x.j.Z.F.
    2b8c:	b6 00 4d 00 1d 00 c4 00 57 00 3b 00 86 00 5c 00     ..M.....W.;...\.
    2b9c:	7c 00 53 00 54 00 84 00 67 00 5c 00 3e 00 9a 00     |.S.T...g.\.>...
    2bac:	78 00 06 00 a3 00 7f 00 26 00 82 00 59 00 70 00     x.......&...Y.p.
    2bbc:	6b 00 39 00 7e 00 72 00 56 00 40 00 7a 00 94 00     k.9.~.r.V.@.z...
    2bcc:	0d 00 72 00 9f 00 22 00 71 00 63 00 59 00 81 00     ..r...".q.c.Y...
    2bdc:	31 00 65 00 83 00 50 00 42 00 62 00 99 00 28 00     1.e...P.B.b...(.
    2bec:	42 00 aa 00 32 00 56 00 71 00 43 00 88 00 3e 00     B...2.V.q.C...>.
    2bfc:	42 00 8f 00 54 00 3e 00 55 00 8d 00 4a 00 22 00     B...T.>.U...J.".
    2c0c:	9d 00 50 00 3b 00 78 00 3a 00 7c 00 5a 00 22 00     ..P.;.x.:.|.Z.".
    2c1c:	8a 00 64 00 35 00 4f 00 7b 00 63 00 1a 00 7c 00     ..d.5.O.{.c...|.
    2c2c:	6e 00 2b 00 73 00 3e 00 63 00 77 00 13 00 71 00     n.+.s.>.c.w...q.
    2c3c:	7b 00 2d 00 49 00 6b 00 6d 00 25 00 56 00 7f 00     {.-.I.k.m.%.V...
    2c4c:	2d 00 62 00 4b 00 47 00 87 00 1b 00 4b 00 8f 00     -.b.K.G.....K...
    2c5c:	2f 00 3d 00 63 00 6a 00 39 00 39 00 7c 00 3d 00     /.=.c.j.9.9.|.=.
    2c6c:	4d 00 57 00 34 00 85 00 34 00 24 00 93 00 3f 00     M.W.4...4.$...?.
    2c7c:	2c 00 5f 00 60 00 4a 00 2d 00 69 00 52 00 3d 00     ,._.`.J.-.i.R.=.
    2c8c:	5b 00 2d 00 73 00 54 00 0a 00 82 00 59 00 1b 00     [.-.s.T.....Y...
    2c9c:	5a 00 58 00 50 00 32 00 4e 00 5f 00 39 00 54 00     Z.X.P.2.N._.9.T.
    2cac:	31 00 59 00 6c 00 04 00 61 00 74 00 15 00 4d 00     1.Y.l...a.t...M.
    2cbc:	57 00 4b 00 3e 00 38 00 5d 00 41 00 47 00 39 00     W.K.>.8.].A.G.9.
    2ccc:	42 00 76 00 13 00 39 00 84 00 1c 00 39 00 5a 00     B.v...9.....9.Z.
    2cdc:	41 00 49 00 30 00 4e 00 4e 00 3d 00 3c 00 34 00     A.I.0.N.N.=.<.4.
    2cec:	6f 00 2c 00 18 00 81 00 31 00 23 00 5c 00 3a 00     o.,.....1.#.\.:.
    2cfc:	4a 00 34 00 38 00 55 00 3b 00 38 00 30 00 5f 00     J.4.8.U.;.8.0._.
    2d0c:	44 00 07 00 6b 00 4b 00 13 00 56 00 3a 00 41 00     D...k.K...V.:.A.
    2d1c:	41 00 26 00 52 00 43 00 30 00 2f 00 4d 00 53 00     A.&.R.C.0./.M.S.
    2d2c:	09 00 4c 00 60 00 0f 00 47 00 41 00 33 00 4b 00     ..L.`...G.A.3.K.
    2d3c:	1f 00 41 00 4e 00 2a 00 2c 00 40 00 56 00 16 00     ..A.N.*.,.@.V...
    2d4c:	2d 00 67 00 19 00 32 00 48 00 28 00 4d 00 24 00     -.g...2.H.(.M.$.
    2d5c:	2b 00 56 00 2b 00 25 00 39 00 4f 00 27 00 18 00     +.V.+.%.9.O.'...
    2d6c:	5e 00 2b 00 20 00 4a 00 24 00 44 00 32 00 17 00     ^.+. .J.$.D.2...
    2d7c:	53 00 35 00 1c 00 34 00 45 00 33 00 11 00 4a 00     S.5...4.E.3...J.
    2d8c:	3d 00 15 00 43 00 27 00 36 00 40 00 0c 00 43 00     =...C.'.6.@...C.
    2d9c:	42 00 14 00 2e 00 3e 00 37 00 15 00 33 00 46 00     B.....>.7...3.F.
    2dac:	16 00 35 00 2d 00 27 00 46 00 0f 00 2d 00 4d 00     ..5.-.'.F...-.M.
    2dbc:	14 00 24 00 3a 00 34 00 1d 00 22 00 43 00 1e 00     ..$.:.4...".C...
    2dcc:	27 00 31 00 1d 00 42 00 1a 00 16 00 4e 00 1c 00     '.1...B.....N...
    2ddc:	17 00 37 00 2f 00 23 00 1a 00 38 00 29 00 1c 00     ..7./.#...8.)...
    2dec:	2f 00 1a 00 38 00 27 00 08 00 44 00 29 00 0c 00     /...8.'...D.)...
    2dfc:	32 00 2c 00 24 00 1a 00 28 00 2f 00 1a 00 28 00     2.,.$...(./...(.
    2e0c:	1c 00 2b 00 31 00 03 00 32 00 36 00 06 00 28 00     ..+.1...2.6...(.
    2e1c:	2b 00 20 00 1d 00 1c 00 2d 00 1d 00 1f 00 1d 00     +. .....-.......
    2e2c:	20 00 32 00 08 00 1e 00 3c 00 09 00 1b 00 2c 00      .2.....<.....,.
    2e3c:	1b 00 1f 00 17 00 24 00 22 00 18 00 1c 00 19 00     ......$.".......
    2e4c:	2d 00 11 00 0d 00 38 00 12 00 0e 00 2a 00 18 00     -.....8.....*...
    2e5c:	1d 00 17 00 19 00 24 00 16 00 17 00 17 00 25 00     ......$.......%.
    2e6c:	19 00 05 00 2d 00 1c 00 06 00 24 00 17 00 17 00     ....-.....$.....
    2e7c:	19 00 10 00 20 00 18 00 11 00 14 00 1d 00 1c 00     .... ...........
    2e8c:	04 00 1e 00 22 00 04 00 1b 00 19 00 11 00 1a 00     ...."...........
    2e9c:	0c 00 18 00 1a 00 0d 00 11 00 17 00 1a 00 07 00     ................
    2eac:	11 00 22 00 07 00 10 00 19 00 0c 00 17 00 0c 00     ..".............
    2ebc:	0e 00 1a 00 0b 00 0c 00 13 00 16 00 0a 00 09 00     ................
    2ecc:	1b 00 0b 00 08 00 16 00 0a 00 12 00 0d 00 07 00     ................
    2edc:	16 00 0c 00 07 00 0f 00 11 00 0b 00 05 00 13 00     ................
    2eec:	0e 00 04 00 10 00 09 00 0b 00 0e 00 03 00 0f 00     ................
    2efc:	0d 00 03 00 0b 00 0d 00 0a 00 04 00 0a 00 0d 00     ................
    2f0c:	03 00 0a 00 08 00 06 00 0b 00 03 00 08 00 0c 00     ................
    2f1c:	02 00 06 00 09 00 06 00 04 00 05 00 08 00 03 00     ................
    2f2c:	04 00 06 00 03 00 06 00 02 00 02 00 07 00 02 00     ................
    2f3c:	02 00 04 00 03 00 02 00 02 00 03 00 02 00 01 00     ................
    2f4c:	02 00 01 00 01 00 01 00 00 00 01 00 00 00 00 00     ................

00002f5c <__ctors_end>:
    2f5c:	11 24       	eor	r1, r1
    2f5e:	1f be       	out	0x3f, r1	; 63
    2f60:	cf ef       	ldi	r28, 0xFF	; 255
    2f62:	d8 e0       	ldi	r29, 0x08	; 8
    2f64:	de bf       	out	0x3e, r29	; 62
    2f66:	cd bf       	out	0x3d, r28	; 61

00002f68 <__do_copy_data>:
    2f68:	11 e0       	ldi	r17, 0x01	; 1
    2f6a:	a0 e0       	ldi	r26, 0x00	; 0
    2f6c:	b1 e0       	ldi	r27, 0x01	; 1
    2f6e:	e0 e2       	ldi	r30, 0x20	; 32
    2f70:	ff e3       	ldi	r31, 0x3F	; 63
    2f72:	02 c0       	rjmp	.+4      	; 0x2f78 <__do_copy_data+0x10>
    2f74:	05 90       	lpm	r0, Z+
    2f76:	0d 92       	st	X+, r0
    2f78:	aa 31       	cpi	r26, 0x1A	; 26
    2f7a:	b1 07       	cpc	r27, r17
    2f7c:	d9 f7       	brne	.-10     	; 0x2f74 <__do_copy_data+0xc>

00002f7e <__do_clear_bss>:
    2f7e:	21 e0       	ldi	r18, 0x01	; 1
    2f80:	aa e1       	ldi	r26, 0x1A	; 26
    2f82:	b1 e0       	ldi	r27, 0x01	; 1
    2f84:	01 c0       	rjmp	.+2      	; 0x2f88 <.do_clear_bss_start>

00002f86 <.do_clear_bss_loop>:
    2f86:	1d 92       	st	X+, r1

00002f88 <.do_clear_bss_start>:
    2f88:	a9 34       	cpi	r26, 0x49	; 73
    2f8a:	b2 07       	cpc	r27, r18
    2f8c:	e1 f7       	brne	.-8      	; 0x2f86 <.do_clear_bss_loop>
    2f8e:	0e 94 b0 18 	call	0x3160	; 0x3160 <main>
    2f92:	0c 94 8e 1f 	jmp	0x3f1c	; 0x3f1c <_exit>

00002f96 <__bad_interrupt>:
    2f96:	0c 94 00 00 	jmp	0	; 0x0 <__vectors>

00002f9a <__vector_12>:
	
	sei();
}

ISR(TIMER1_CAPT_vect) //subtract this with prevous cap value and use it to find period, inverse for freq, output to display, look up closest note and output that too and direction to be more in tune
{  //NOTE THIS MAY HAVE TO BE COMP INT VECTOR, WHICH MEANS THAT NEEDS TO BE ENABLED IN INIT AS WELL
    2f9a:	1f 92       	push	r1
    2f9c:	0f 92       	push	r0
    2f9e:	0f b6       	in	r0, 0x3f	; 63
    2fa0:	0f 92       	push	r0
    2fa2:	11 24       	eor	r1, r1
    2fa4:	8f 93       	push	r24
    2fa6:	9f 93       	push	r25
	cli();
    2fa8:	f8 94       	cli
	//remember this clock is prescaled by 8, so each clock is 1e-6 seconds
	lastCapture = ICval;
    2faa:	80 91 1b 01 	lds	r24, 0x011B
    2fae:	90 91 1c 01 	lds	r25, 0x011C
    2fb2:	90 93 1e 01 	sts	0x011E, r25
    2fb6:	80 93 1d 01 	sts	0x011D, r24
	
	ICval = ICR1;
    2fba:	80 91 86 00 	lds	r24, 0x0086
    2fbe:	90 91 87 00 	lds	r25, 0x0087
    2fc2:	90 93 1c 01 	sts	0x011C, r25
    2fc6:	80 93 1b 01 	sts	0x011B, r24
	
	sei();
    2fca:	78 94       	sei
}
    2fcc:	9f 91       	pop	r25
    2fce:	8f 91       	pop	r24
    2fd0:	0f 90       	pop	r0
    2fd2:	0f be       	out	0x3f, r0	; 63
    2fd4:	0f 90       	pop	r0
    2fd6:	1f 90       	pop	r1
    2fd8:	18 95       	reti

00002fda <__vector_15>:
	if(sample_count >= ARRAYLENGTH) doneBooting = 1;
	send_DAC_value(word);
}

ISR(TIMER1_OVF_vect)
{
    2fda:	1f 92       	push	r1
    2fdc:	0f 92       	push	r0
    2fde:	0f b6       	in	r0, 0x3f	; 63
    2fe0:	0f 92       	push	r0
    2fe2:	11 24       	eor	r1, r1
    2fe4:	2f 93       	push	r18
    2fe6:	3f 93       	push	r19
    2fe8:	4f 93       	push	r20
    2fea:	5f 93       	push	r21
    2fec:	6f 93       	push	r22
    2fee:	7f 93       	push	r23
    2ff0:	8f 93       	push	r24
    2ff2:	9f 93       	push	r25
    2ff4:	af 93       	push	r26
    2ff6:	bf 93       	push	r27
    2ff8:	ef 93       	push	r30
    2ffa:	ff 93       	push	r31
	static uint16_t ADC_count = 0;
	ADC_count = (ADC_count + 1)%1000;  //every  seconds get a new ADC value
    2ffc:	40 91 47 01 	lds	r20, 0x0147
    3000:	50 91 48 01 	lds	r21, 0x0148
    3004:	4f 5f       	subi	r20, 0xFF	; 255
    3006:	5f 4f       	sbci	r21, 0xFF	; 255
    3008:	9a 01       	movw	r18, r20
    300a:	36 95       	lsr	r19
    300c:	27 95       	ror	r18
    300e:	36 95       	lsr	r19
    3010:	27 95       	ror	r18
    3012:	36 95       	lsr	r19
    3014:	27 95       	ror	r18
    3016:	a5 ec       	ldi	r26, 0xC5	; 197
    3018:	b0 e2       	ldi	r27, 0x20	; 32
    301a:	0e 94 7d 1c 	call	0x38fa	; 0x38fa <__umulhisi3>
    301e:	92 95       	swap	r25
    3020:	82 95       	swap	r24
    3022:	8f 70       	andi	r24, 0x0F	; 15
    3024:	89 27       	eor	r24, r25
    3026:	9f 70       	andi	r25, 0x0F	; 15
    3028:	89 27       	eor	r24, r25
    302a:	68 ee       	ldi	r22, 0xE8	; 232
    302c:	73 e0       	ldi	r23, 0x03	; 3
    302e:	86 9f       	mul	r24, r22
    3030:	90 01       	movw	r18, r0
    3032:	87 9f       	mul	r24, r23
    3034:	30 0d       	add	r19, r0
    3036:	96 9f       	mul	r25, r22
    3038:	30 0d       	add	r19, r0
    303a:	11 24       	eor	r1, r1
    303c:	ca 01       	movw	r24, r20
    303e:	82 1b       	sub	r24, r18
    3040:	93 0b       	sbc	r25, r19
    3042:	90 93 48 01 	sts	0x0148, r25
    3046:	80 93 47 01 	sts	0x0147, r24
	if(ADC_count == 0) ADCSRA |= (1 << ADSC); //start an ADC conversion
    304a:	89 2b       	or	r24, r25
    304c:	29 f4       	brne	.+10     	; 0x3058 <__vector_15+0x7e>
    304e:	ea e7       	ldi	r30, 0x7A	; 122
    3050:	f0 e0       	ldi	r31, 0x00	; 0
    3052:	80 81       	ld	r24, Z
    3054:	80 64       	ori	r24, 0x40	; 64
    3056:	80 83       	st	Z, r24
}
    3058:	ff 91       	pop	r31
    305a:	ef 91       	pop	r30
    305c:	bf 91       	pop	r27
    305e:	af 91       	pop	r26
    3060:	9f 91       	pop	r25
    3062:	8f 91       	pop	r24
    3064:	7f 91       	pop	r23
    3066:	6f 91       	pop	r22
    3068:	5f 91       	pop	r21
    306a:	4f 91       	pop	r20
    306c:	3f 91       	pop	r19
    306e:	2f 91       	pop	r18
    3070:	0f 90       	pop	r0
    3072:	0f be       	out	0x3f, r0	; 63
    3074:	0f 90       	pop	r0
    3076:	1f 90       	pop	r1
    3078:	18 95       	reti

0000307a <print_char_lcd>:
	lcd_cmd(0x01);
}

void print_char_lcd(char data)
{
	LCDPORT_DIR = 0xFF;
    307a:	9f ef       	ldi	r25, 0xFF	; 255
    307c:	97 b9       	out	0x07, r25	; 7
	char upper = (data & 0xF0) >> 4 | 0xA0; //upper data
    307e:	98 2f       	mov	r25, r24
    3080:	92 95       	swap	r25
    3082:	9f 70       	andi	r25, 0x0F	; 15
    3084:	90 6a       	ori	r25, 0xA0	; 160
	char lower = (data & 0x0F) | 0xA0; //lower data
    3086:	8f 70       	andi	r24, 0x0F	; 15
    3088:	80 6a       	ori	r24, 0xA0	; 160
	
	//notice the A instead of the 8, this makes RS true, selecting Data Reg
	
	LCDPORT = upper; //send cmd upper
    308a:	98 b9       	out	0x08, r25	; 8
	#else
		//round up by default
		__ticks_dc = (uint32_t)(ceil(fabs(__tmp)));
	#endif

	__builtin_avr_delay_cycles(__ticks_dc);
    308c:	ef e9       	ldi	r30, 0x9F	; 159
    308e:	ff e0       	ldi	r31, 0x0F	; 15
    3090:	31 97       	sbiw	r30, 0x01	; 1
    3092:	f1 f7       	brne	.-4      	; 0x3090 <print_char_lcd+0x16>
    3094:	00 c0       	rjmp	.+0      	; 0x3096 <print_char_lcd+0x1c>
    3096:	00 00       	nop
	_delay_ms(2);
	LCDPORT ^= (0x80); //toggle enable
    3098:	98 b1       	in	r25, 0x08	; 8
    309a:	90 58       	subi	r25, 0x80	; 128
    309c:	98 b9       	out	0x08, r25	; 8
    309e:	ef e9       	ldi	r30, 0x9F	; 159
    30a0:	ff e0       	ldi	r31, 0x0F	; 15
    30a2:	31 97       	sbiw	r30, 0x01	; 1
    30a4:	f1 f7       	brne	.-4      	; 0x30a2 <print_char_lcd+0x28>
    30a6:	00 c0       	rjmp	.+0      	; 0x30a8 <print_char_lcd+0x2e>
    30a8:	00 00       	nop
	_delay_ms(2);
	
	LCDPORT = lower;
    30aa:	88 b9       	out	0x08, r24	; 8
    30ac:	8f e9       	ldi	r24, 0x9F	; 159
    30ae:	9f e0       	ldi	r25, 0x0F	; 15
    30b0:	01 97       	sbiw	r24, 0x01	; 1
    30b2:	f1 f7       	brne	.-4      	; 0x30b0 <print_char_lcd+0x36>
    30b4:	00 c0       	rjmp	.+0      	; 0x30b6 <print_char_lcd+0x3c>
    30b6:	00 00       	nop
	_delay_ms(2);
	LCDPORT ^= (0x80); //same thing but for lower
    30b8:	88 b1       	in	r24, 0x08	; 8
    30ba:	80 58       	subi	r24, 0x80	; 128
    30bc:	88 b9       	out	0x08, r24	; 8
    30be:	ef e9       	ldi	r30, 0x9F	; 159
    30c0:	ff e0       	ldi	r31, 0x0F	; 15
    30c2:	31 97       	sbiw	r30, 0x01	; 1
    30c4:	f1 f7       	brne	.-4      	; 0x30c2 <print_char_lcd+0x48>
    30c6:	00 c0       	rjmp	.+0      	; 0x30c8 <print_char_lcd+0x4e>
    30c8:	00 00       	nop
    30ca:	08 95       	ret

000030cc <printLCD>:
	_delay_ms(2);
}

void printLCD(char* a)
{
    30cc:	cf 93       	push	r28
    30ce:	df 93       	push	r29
    30d0:	ec 01       	movw	r28, r24
	for(int i = 0; a[i] != 0; i++)
    30d2:	88 81       	ld	r24, Y
    30d4:	88 23       	and	r24, r24
    30d6:	31 f0       	breq	.+12     	; 0x30e4 <printLCD+0x18>
	_delay_ms(2);
	LCDPORT ^= (0x80); //same thing but for lower
	_delay_ms(2);
}

void printLCD(char* a)
    30d8:	21 96       	adiw	r28, 0x01	; 1
{
	for(int i = 0; a[i] != 0; i++)
	{
		print_char_lcd(a[i]);
    30da:	0e 94 3d 18 	call	0x307a	; 0x307a <print_char_lcd>
	_delay_ms(2);
}

void printLCD(char* a)
{
	for(int i = 0; a[i] != 0; i++)
    30de:	89 91       	ld	r24, Y+
    30e0:	81 11       	cpse	r24, r1
    30e2:	fb cf       	rjmp	.-10     	; 0x30da <printLCD+0xe>
	{
		print_char_lcd(a[i]);
	}
}
    30e4:	df 91       	pop	r29
    30e6:	cf 91       	pop	r28
    30e8:	08 95       	ret

000030ea <lcd_cmd>:

void lcd_cmd(uint8_t CMD)
{
	LCDPORT_DIR = 0xFF;
    30ea:	9f ef       	ldi	r25, 0xFF	; 255
    30ec:	97 b9       	out	0x07, r25	; 7
	uint8_t upper = ((CMD & 0xF0) >> 4); //upper command
    30ee:	98 2f       	mov	r25, r24
    30f0:	92 95       	swap	r25
    30f2:	9f 70       	andi	r25, 0x0F	; 15
	uint8_t lower = (CMD & 0x0F); //lower command
	
	LCDPORT = upper | 1<<7; //send cmd upper
    30f4:	90 68       	ori	r25, 0x80	; 128
    30f6:	98 b9       	out	0x08, r25	; 8
    30f8:	ef e9       	ldi	r30, 0x9F	; 159
    30fa:	ff e0       	ldi	r31, 0x0F	; 15
    30fc:	31 97       	sbiw	r30, 0x01	; 1
    30fe:	f1 f7       	brne	.-4      	; 0x30fc <lcd_cmd+0x12>
    3100:	00 c0       	rjmp	.+0      	; 0x3102 <lcd_cmd+0x18>
    3102:	00 00       	nop
	_delay_ms(2);
	LCDPORT ^= (0x80); //toggle enable
    3104:	98 b1       	in	r25, 0x08	; 8
    3106:	90 58       	subi	r25, 0x80	; 128
    3108:	98 b9       	out	0x08, r25	; 8
    310a:	ef e9       	ldi	r30, 0x9F	; 159
    310c:	ff e0       	ldi	r31, 0x0F	; 15
    310e:	31 97       	sbiw	r30, 0x01	; 1
    3110:	f1 f7       	brne	.-4      	; 0x310e <lcd_cmd+0x24>
    3112:	00 c0       	rjmp	.+0      	; 0x3114 <lcd_cmd+0x2a>
    3114:	00 00       	nop

void lcd_cmd(uint8_t CMD)
{
	LCDPORT_DIR = 0xFF;
	uint8_t upper = ((CMD & 0xF0) >> 4); //upper command
	uint8_t lower = (CMD & 0x0F); //lower command
    3116:	8f 70       	andi	r24, 0x0F	; 15
	LCDPORT = upper | 1<<7; //send cmd upper
	_delay_ms(2);
	LCDPORT ^= (0x80); //toggle enable
	_delay_ms(2);
	
	LCDPORT = lower | 1<<7;
    3118:	80 68       	ori	r24, 0x80	; 128
    311a:	88 b9       	out	0x08, r24	; 8
    311c:	8f e9       	ldi	r24, 0x9F	; 159
    311e:	9f e0       	ldi	r25, 0x0F	; 15
    3120:	01 97       	sbiw	r24, 0x01	; 1
    3122:	f1 f7       	brne	.-4      	; 0x3120 <lcd_cmd+0x36>
    3124:	00 c0       	rjmp	.+0      	; 0x3126 <lcd_cmd+0x3c>
    3126:	00 00       	nop
	_delay_ms(2);
	LCDPORT ^= (0x80); //same thing but for lower
    3128:	88 b1       	in	r24, 0x08	; 8
    312a:	80 58       	subi	r24, 0x80	; 128
    312c:	88 b9       	out	0x08, r24	; 8
    312e:	ef e9       	ldi	r30, 0x9F	; 159
    3130:	ff e0       	ldi	r31, 0x0F	; 15
    3132:	31 97       	sbiw	r30, 0x01	; 1
    3134:	f1 f7       	brne	.-4      	; 0x3132 <lcd_cmd+0x48>
    3136:	00 c0       	rjmp	.+0      	; 0x3138 <lcd_cmd+0x4e>
    3138:	00 00       	nop
    313a:	08 95       	ret

0000313c <LCD_init>:
	//LCD port format
	//<Enable><NOTHING><RS><RW><DB7:4> and DB 3 : 0 are not connected
	
	//_delay_ms(100); //need to delay at least 40ms
	
	LCDPORT_DIR = 0xFF; //using LSBits of porta
    313c:	8f ef       	ldi	r24, 0xFF	; 255
    313e:	87 b9       	out	0x07, r24	; 7
	//see manual for init details
	
	lcd_cmd(0x33);
    3140:	83 e3       	ldi	r24, 0x33	; 51
    3142:	0e 94 75 18 	call	0x30ea	; 0x30ea <lcd_cmd>
	lcd_cmd(0x32);
    3146:	82 e3       	ldi	r24, 0x32	; 50
    3148:	0e 94 75 18 	call	0x30ea	; 0x30ea <lcd_cmd>
	lcd_cmd(0x2C);
    314c:	8c e2       	ldi	r24, 0x2C	; 44
    314e:	0e 94 75 18 	call	0x30ea	; 0x30ea <lcd_cmd>
	lcd_cmd(0x0C);
    3152:	8c e0       	ldi	r24, 0x0C	; 12
    3154:	0e 94 75 18 	call	0x30ea	; 0x30ea <lcd_cmd>
	lcd_cmd(0x01);
    3158:	81 e0       	ldi	r24, 0x01	; 1
    315a:	0e 94 75 18 	call	0x30ea	; 0x30ea <lcd_cmd>
    315e:	08 95       	ret

00003160 <main>:
//TODO check stuff, make sure SPI xck is 4 Mhz


int main(void)
{
	CLKPR = 1<<CLKPCE;
    3160:	e1 e6       	ldi	r30, 0x61	; 97
    3162:	f0 e0       	ldi	r31, 0x00	; 0
    3164:	80 e8       	ldi	r24, 0x80	; 128
    3166:	80 83       	st	Z, r24
	CLKPR &= 1<<CLKPCE; //switch to 8 Mhz
    3168:	80 81       	ld	r24, Z
    316a:	80 78       	andi	r24, 0x80	; 128
    316c:	80 83       	st	Z, r24
	_delay_ms(2);
}

void IO_init()
{
	IOPORT_DIR |= (1 << PIND7);
    316e:	57 9a       	sbi	0x0a, 7	; 10
	DIDR1 |= (1 << AIN1D) | (1 << AIN0D); //manual said to disable these digital inputs since I'm using it as analog
}

void SPI_init()
{
	DDRB |= (1<<MOSI_BIT | 1<<SCK_BIT | 1<<PORTB4); // /ss, sck, and mosi all outputs	
    3170:	84 b1       	in	r24, 0x04	; 4
    3172:	80 6b       	ori	r24, 0xB0	; 176
    3174:	84 b9       	out	0x04, r24	; 4
	PORTB |= 1<<PORTB4; //make /ss high
    3176:	2c 9a       	sbi	0x05, 4	; 5
	SPSR0 |= 1 << SPI2X0;
    3178:	8d b5       	in	r24, 0x2d	; 45
    317a:	81 60       	ori	r24, 0x01	; 1
    317c:	8d bd       	out	0x2d, r24	; 45
	SPCR0 |= (1<<SPE0 | 1<<MSTR0); //enable in master mode, fosc/2 frequency ie 4 mhz
    317e:	8c b5       	in	r24, 0x2c	; 44
    3180:	80 65       	ori	r24, 0x50	; 80
    3182:	8c bd       	out	0x2c, r24	; 44
	TIMSK1 |= (1 << ICIE1) | (1 << TOIE1);  //use interrupts and this also allows COMP to trigger an IC
}

void TC_DAC_init()
{
	TCCR0A |= (1 << WGM01); //OCRA to measure period
    3184:	84 b5       	in	r24, 0x24	; 36
    3186:	82 60       	ori	r24, 0x02	; 2
    3188:	84 bd       	out	0x24, r24	; 36
	TCCR0B |= (1 << CS01) | (1 << CS00); //64 prescale
    318a:	85 b5       	in	r24, 0x25	; 37
    318c:	83 60       	ori	r24, 0x03	; 3
    318e:	85 bd       	out	0x25, r24	; 37
	OCR0A = DACPERIOD;
    3190:	8d e7       	ldi	r24, 0x7D	; 125
    3192:	87 bd       	out	0x27, r24	; 39
	TIMSK0 |= (1 << OCIE0A); //interrupt when we hit dacperiod
    3194:	ee e6       	ldi	r30, 0x6E	; 110
    3196:	f0 e0       	ldi	r31, 0x00	; 0
    3198:	80 81       	ld	r24, Z
    319a:	82 60       	ori	r24, 0x02	; 2
    319c:	80 83       	st	Z, r24
	
	IO_init();
	SPI_init();
	TC_DAC_init();
	
	sei();
    319e:	78 94       	sei
	
	while(doneBooting != 1) asm("nop"); //play the boot sound
    31a0:	80 91 1a 01 	lds	r24, 0x011A
    31a4:	81 30       	cpi	r24, 0x01	; 1
    31a6:	29 f0       	breq	.+10     	; 0x31b2 <main+0x52>
    31a8:	00 00       	nop
    31aa:	80 91 1a 01 	lds	r24, 0x011A
    31ae:	81 30       	cpi	r24, 0x01	; 1
    31b0:	d9 f7       	brne	.-10     	; 0x31a8 <main+0x48>
	
	cli();
    31b2:	f8 94       	cli
	
	TCCR0B = 0; //turn off timer 0
    31b4:	15 bc       	out	0x25, r1	; 37
	
	LCD_init();
    31b6:	0e 94 9e 18 	call	0x313c	; 0x313c <LCD_init>
	}
}

void ADC_init()
{
	ADMUX |= (1 << REFS1);//internal 1.1v ref, right adjusted, ADC0 input
    31ba:	ec e7       	ldi	r30, 0x7C	; 124
    31bc:	f0 e0       	ldi	r31, 0x00	; 0
    31be:	80 81       	ld	r24, Z
    31c0:	80 68       	ori	r24, 0x80	; 128
    31c2:	80 83       	st	Z, r24
	ADCSRA |= (1 << ADEN) | (1 << ADIE) | (1 << ADSC) | (1 << ADPS2) | (1 << ADPS1) | (1 << ADPS0); //enable adc, enable interrupts slowest prescale (divide by 128)
    31c4:	ea e7       	ldi	r30, 0x7A	; 122
    31c6:	f0 e0       	ldi	r31, 0x00	; 0
    31c8:	80 81       	ld	r24, Z
    31ca:	8f 6c       	ori	r24, 0xCF	; 207
    31cc:	80 83       	st	Z, r24
	IOPORT_DIR |= (1 << PIND7);
}

void TC_IC_init()
{
	TCCR1B |= /*(1 << ICNC1) |*/ (1 << ICES1) | (1 << CS11) ; //FILTER ON (maybe turn off), rising edge trigger, divide clock by 1
    31ce:	a1 e8       	ldi	r26, 0x81	; 129
    31d0:	b0 e0       	ldi	r27, 0x00	; 0
    31d2:	8c 91       	ld	r24, X
    31d4:	82 64       	ori	r24, 0x42	; 66
    31d6:	8c 93       	st	X, r24
	TIMSK1 |= (1 << ICIE1) | (1 << TOIE1);  //use interrupts and this also allows COMP to trigger an IC
    31d8:	af e6       	ldi	r26, 0x6F	; 111
    31da:	b0 e0       	ldi	r27, 0x00	; 0
    31dc:	8c 91       	ld	r24, X
    31de:	81 62       	ori	r24, 0x21	; 33
    31e0:	8c 93       	st	X, r24
	ADCSRA |= (1 << ADEN) | (1 << ADIE) | (1 << ADSC) | (1 << ADPS2) | (1 << ADPS1) | (1 << ADPS0); //enable adc, enable interrupts slowest prescale (divide by 128)
}

void COMP_init()
{
	ACSR &= ~(1 << ACD);  //clear this disable bit (wtf?)
    31e2:	80 b7       	in	r24, 0x30	; 48
    31e4:	8f 77       	andi	r24, 0x7F	; 127
    31e6:	80 bf       	out	0x30, r24	; 48
	ACSR |= (1 << ACIC); //alow analog comparator input capture, trigger on rising edge
    31e8:	80 b7       	in	r24, 0x30	; 48
    31ea:	84 60       	ori	r24, 0x04	; 4
    31ec:	80 bf       	out	0x30, r24	; 48
	DIDR1 |= (1 << AIN1D) | (1 << AIN0D); //manual said to disable these digital inputs since I'm using it as analog
    31ee:	af e7       	ldi	r26, 0x7F	; 127
    31f0:	b0 e0       	ldi	r27, 0x00	; 0
    31f2:	8c 91       	ld	r24, X
    31f4:	83 60       	ori	r24, 0x03	; 3
    31f6:	8c 93       	st	X, r24
	LCD_init();
	ADC_init();
	TC_IC_init();
	COMP_init();
	
	ADCSRA |= (1 << ADSC); //start an ADC conversion
    31f8:	80 81       	ld	r24, Z
    31fa:	80 64       	ori	r24, 0x40	; 64
    31fc:	80 83       	st	Z, r24
	
	sei();
    31fe:	78 94       	sei
		lastCapture = ICval;
		
		freq = (freq + (pow(period,-1)*100))/2; //average of last 2 frequencies, hopefully this smooths things, for some reason i have 10 hz error, fix that
		
		//snprintf(buffer, 16, "%"PRIu16"e-2Hz %s %c", freq, currentNote, sharp); //0 means flat, 1 sharp, 2 is in tune
		snprintf(buffer, 16, "%"PRIu16"e-2Hz", freq);
    3200:	00 e0       	ldi	r16, 0x00	; 0
    3202:	11 e0       	ldi	r17, 0x01	; 1
    3204:	68 94       	set
    3206:	aa 24       	eor	r10, r10
    3208:	a4 f8       	bld	r10, 4
    320a:	c5 e2       	ldi	r28, 0x25	; 37
    320c:	d1 e0       	ldi	r29, 0x01	; 1
		//sharp = findNote(freq,currentNote);
		
		static char buffer[16];
		
		static double period;
		period = (ICval - lastCapture)*pow(1e6,-1); //each clock is 1/8 * 10e-6 seconds
    320e:	e0 90 1b 01 	lds	r14, 0x011B
    3212:	f0 90 1c 01 	lds	r15, 0x011C
    3216:	80 91 1d 01 	lds	r24, 0x011D
    321a:	90 91 1e 01 	lds	r25, 0x011E
    321e:	b7 01       	movw	r22, r14
    3220:	68 1b       	sub	r22, r24
    3222:	79 0b       	sbc	r23, r25
    3224:	80 e0       	ldi	r24, 0x00	; 0
    3226:	90 e0       	ldi	r25, 0x00	; 0
    3228:	0e 94 45 1b 	call	0x368a	; 0x368a <__floatunsisf>
    322c:	2d eb       	ldi	r18, 0xBD	; 189
    322e:	37 e3       	ldi	r19, 0x37	; 55
    3230:	46 e8       	ldi	r20, 0x86	; 134
    3232:	55 e3       	ldi	r21, 0x35	; 53
    3234:	0e 94 d3 1b 	call	0x37a6	; 0x37a6 <__mulsf3>
    3238:	96 2e       	mov	r9, r22
    323a:	b7 2e       	mov	r11, r23
    323c:	c8 2e       	mov	r12, r24
    323e:	d9 2e       	mov	r13, r25
    3240:	98 2f       	mov	r25, r24
    3242:	49 2d       	mov	r20, r9
    3244:	5b 2d       	mov	r21, r11
    3246:	69 2f       	mov	r22, r25
    3248:	7d 2d       	mov	r23, r13
    324a:	40 93 1f 01 	sts	0x011F, r20
    324e:	50 93 20 01 	sts	0x0120, r21
    3252:	60 93 21 01 	sts	0x0121, r22
    3256:	70 93 22 01 	sts	0x0122, r23
		
		lastCapture = ICval;
    325a:	f0 92 1e 01 	sts	0x011E, r15
    325e:	e0 92 1d 01 	sts	0x011D, r14
		
		freq = (freq + (pow(period,-1)*100))/2; //average of last 2 frequencies, hopefully this smooths things, for some reason i have 10 hz error, fix that
    3262:	60 91 23 01 	lds	r22, 0x0123
    3266:	70 91 24 01 	lds	r23, 0x0124
    326a:	80 e0       	ldi	r24, 0x00	; 0
    326c:	90 e0       	ldi	r25, 0x00	; 0
    326e:	0e 94 45 1b 	call	0x368a	; 0x368a <__floatunsisf>
    3272:	2b 01       	movw	r4, r22
    3274:	3c 01       	movw	r6, r24
    3276:	29 2d       	mov	r18, r9
    3278:	3b 2d       	mov	r19, r11
    327a:	4c 2d       	mov	r20, r12
    327c:	5d 2d       	mov	r21, r13
    327e:	60 e0       	ldi	r22, 0x00	; 0
    3280:	70 e0       	ldi	r23, 0x00	; 0
    3282:	80 e8       	ldi	r24, 0x80	; 128
    3284:	9f e3       	ldi	r25, 0x3F	; 63
    3286:	0e 94 b1 1a 	call	0x3562	; 0x3562 <__divsf3>
    328a:	20 e0       	ldi	r18, 0x00	; 0
    328c:	30 e0       	ldi	r19, 0x00	; 0
    328e:	48 ec       	ldi	r20, 0xC8	; 200
    3290:	52 e4       	ldi	r21, 0x42	; 66
    3292:	0e 94 d3 1b 	call	0x37a6	; 0x37a6 <__mulsf3>
    3296:	9b 01       	movw	r18, r22
    3298:	ac 01       	movw	r20, r24
    329a:	c3 01       	movw	r24, r6
    329c:	b2 01       	movw	r22, r4
    329e:	0e 94 4d 1a 	call	0x349a	; 0x349a <__addsf3>
    32a2:	20 e0       	ldi	r18, 0x00	; 0
    32a4:	30 e0       	ldi	r19, 0x00	; 0
    32a6:	40 e0       	ldi	r20, 0x00	; 0
    32a8:	5f e3       	ldi	r21, 0x3F	; 63
    32aa:	0e 94 d3 1b 	call	0x37a6	; 0x37a6 <__mulsf3>
    32ae:	0e 94 19 1b 	call	0x3632	; 0x3632 <__fixunssfsi>
    32b2:	60 93 23 01 	sts	0x0123, r22
    32b6:	70 93 24 01 	sts	0x0124, r23
		
		//snprintf(buffer, 16, "%"PRIu16"e-2Hz %s %c", freq, currentNote, sharp); //0 means flat, 1 sharp, 2 is in tune
		snprintf(buffer, 16, "%"PRIu16"e-2Hz", freq);
    32ba:	7f 93       	push	r23
    32bc:	6f 93       	push	r22
    32be:	1f 93       	push	r17
    32c0:	0f 93       	push	r16
    32c2:	1f 92       	push	r1
    32c4:	af 92       	push	r10
    32c6:	df 93       	push	r29
    32c8:	cf 93       	push	r28
    32ca:	0e 94 89 1c 	call	0x3912	; 0x3912 <snprintf>
			IOPORT = 0;
		}*/
		
		//ADCSRA ^= (1 << ADIE); //changes address so we have to stop it
		
		lcd_cmd(0x80); //go back to the first address
    32ce:	80 e8       	ldi	r24, 0x80	; 128
    32d0:	0e 94 75 18 	call	0x30ea	; 0x30ea <lcd_cmd>
		printLCD(buffer); //print the frequency		
    32d4:	ce 01       	movw	r24, r28
    32d6:	0e 94 66 18 	call	0x30cc	; 0x30cc <printLCD>
		lcd_cmd(0xC0); //set ddram address to second line		
    32da:	80 ec       	ldi	r24, 0xC0	; 192
    32dc:	0e 94 75 18 	call	0x30ea	; 0x30ea <lcd_cmd>
		printLCD(line2buffer); //print ADC value
    32e0:	85 e3       	ldi	r24, 0x35	; 53
    32e2:	91 e0       	ldi	r25, 0x01	; 1
    32e4:	0e 94 66 18 	call	0x30cc	; 0x30cc <printLCD>
    32e8:	8d b7       	in	r24, 0x3d	; 61
    32ea:	9e b7       	in	r25, 0x3e	; 62
    32ec:	08 96       	adiw	r24, 0x08	; 8
    32ee:	0f b6       	in	r0, 0x3f	; 63
    32f0:	f8 94       	cli
    32f2:	9e bf       	out	0x3e, r25	; 62
    32f4:	0f be       	out	0x3f, r0	; 63
    32f6:	8d bf       	out	0x3d, r24	; 61
    32f8:	8a cf       	rjmp	.-236    	; 0x320e <main+0xae>

000032fa <getADCVal>:
	
	retval = ADC_Low + ADC_High;
	
	ADCSRA |= 1<<ADIF; //clear the conversion done bit*/
	
	return ADC;
    32fa:	20 91 78 00 	lds	r18, 0x0078
    32fe:	30 91 79 00 	lds	r19, 0x0079
}
    3302:	82 2f       	mov	r24, r18
    3304:	93 2f       	mov	r25, r19
    3306:	08 95       	ret

00003308 <__vector_24>:
		//ADCSRA ^= (1 << ADIE); //turn it back on
    }
}

ISR(ADC_vect) //calculate battery level, output it to second line of LCD
{
    3308:	1f 92       	push	r1
    330a:	0f 92       	push	r0
    330c:	0f b6       	in	r0, 0x3f	; 63
    330e:	0f 92       	push	r0
    3310:	11 24       	eor	r1, r1
    3312:	ef 92       	push	r14
    3314:	ff 92       	push	r15
    3316:	0f 93       	push	r16
    3318:	1f 93       	push	r17
    331a:	2f 93       	push	r18
    331c:	3f 93       	push	r19
    331e:	4f 93       	push	r20
    3320:	5f 93       	push	r21
    3322:	6f 93       	push	r22
    3324:	7f 93       	push	r23
    3326:	8f 93       	push	r24
    3328:	9f 93       	push	r25
    332a:	af 93       	push	r26
    332c:	bf 93       	push	r27
    332e:	cf 93       	push	r28
    3330:	df 93       	push	r29
    3332:	ef 93       	push	r30
    3334:	ff 93       	push	r31
	cli();
    3336:	f8 94       	cli
	
	Vcc = Vcc - temp;
	Vcc *= 100;
	uint16_t Vcc_dec = (uint16_t) Vcc;	*/
	
	uint16_t ADCval = getADCVal();
    3338:	0e 94 7d 19 	call	0x32fa	; 0x32fa <getADCVal>
	
	double Vin = ((double)ADCval*9)/1023;
    333c:	bc 01       	movw	r22, r24
    333e:	80 e0       	ldi	r24, 0x00	; 0
    3340:	90 e0       	ldi	r25, 0x00	; 0
    3342:	0e 94 45 1b 	call	0x368a	; 0x368a <__floatunsisf>
    3346:	20 e0       	ldi	r18, 0x00	; 0
    3348:	30 e0       	ldi	r19, 0x00	; 0
    334a:	40 e1       	ldi	r20, 0x10	; 16
    334c:	51 e4       	ldi	r21, 0x41	; 65
    334e:	0e 94 d3 1b 	call	0x37a6	; 0x37a6 <__mulsf3>
    3352:	20 e0       	ldi	r18, 0x00	; 0
    3354:	30 ec       	ldi	r19, 0xC0	; 192
    3356:	4f e7       	ldi	r20, 0x7F	; 127
    3358:	54 e4       	ldi	r21, 0x44	; 68
    335a:	0e 94 b1 1a 	call	0x3562	; 0x3562 <__divsf3>
    335e:	e6 2e       	mov	r14, r22
    3360:	f7 2e       	mov	r15, r23
    3362:	08 2f       	mov	r16, r24
    3364:	19 2f       	mov	r17, r25
	
	uint16_t whole = Vin;
    3366:	80 2f       	mov	r24, r16
    3368:	91 2f       	mov	r25, r17
    336a:	0e 94 19 1b 	call	0x3632	; 0x3632 <__fixunssfsi>
    336e:	eb 01       	movw	r28, r22
	
	double dec = Vin - whole;
    3370:	80 e0       	ldi	r24, 0x00	; 0
    3372:	90 e0       	ldi	r25, 0x00	; 0
    3374:	0e 94 45 1b 	call	0x368a	; 0x368a <__floatunsisf>
    3378:	9b 01       	movw	r18, r22
    337a:	ac 01       	movw	r20, r24
    337c:	6e 2d       	mov	r22, r14
    337e:	7f 2d       	mov	r23, r15
    3380:	80 2f       	mov	r24, r16
    3382:	91 2f       	mov	r25, r17
    3384:	0e 94 4c 1a 	call	0x3498	; 0x3498 <__subsf3>
	
	uint16_t deci = trunc(dec*1000);
    3388:	20 e0       	ldi	r18, 0x00	; 0
    338a:	30 e0       	ldi	r19, 0x00	; 0
    338c:	4a e7       	ldi	r20, 0x7A	; 122
    338e:	54 e4       	ldi	r21, 0x44	; 68
    3390:	0e 94 d3 1b 	call	0x37a6	; 0x37a6 <__mulsf3>
    3394:	0e 94 36 1c 	call	0x386c	; 0x386c <trunc>
    3398:	0e 94 19 1b 	call	0x3632	; 0x3632 <__fixunssfsi>
	
	sprintf(line2buffer,"Battery: %"PRIu16".%"PRIu16" V",whole,deci); //format vcc to a string with 3 decimal places
    339c:	7f 93       	push	r23
    339e:	6f 93       	push	r22
    33a0:	df 93       	push	r29
    33a2:	cf 93       	push	r28
    33a4:	88 e0       	ldi	r24, 0x08	; 8
    33a6:	91 e0       	ldi	r25, 0x01	; 1
    33a8:	9f 93       	push	r25
    33aa:	8f 93       	push	r24
    33ac:	85 e3       	ldi	r24, 0x35	; 53
    33ae:	91 e0       	ldi	r25, 0x01	; 1
    33b0:	9f 93       	push	r25
    33b2:	8f 93       	push	r24
    33b4:	0e 94 b9 1c 	call	0x3972	; 0x3972 <sprintf>
	
	sei();
    33b8:	78 94       	sei
    33ba:	8d b7       	in	r24, 0x3d	; 61
    33bc:	9e b7       	in	r25, 0x3e	; 62
    33be:	08 96       	adiw	r24, 0x08	; 8
    33c0:	0f b6       	in	r0, 0x3f	; 63
    33c2:	f8 94       	cli
    33c4:	9e bf       	out	0x3e, r25	; 62
    33c6:	0f be       	out	0x3f, r0	; 63
    33c8:	8d bf       	out	0x3d, r24	; 61
}
    33ca:	ff 91       	pop	r31
    33cc:	ef 91       	pop	r30
    33ce:	df 91       	pop	r29
    33d0:	cf 91       	pop	r28
    33d2:	bf 91       	pop	r27
    33d4:	af 91       	pop	r26
    33d6:	9f 91       	pop	r25
    33d8:	8f 91       	pop	r24
    33da:	7f 91       	pop	r23
    33dc:	6f 91       	pop	r22
    33de:	5f 91       	pop	r21
    33e0:	4f 91       	pop	r20
    33e2:	3f 91       	pop	r19
    33e4:	2f 91       	pop	r18
    33e6:	1f 91       	pop	r17
    33e8:	0f 91       	pop	r16
    33ea:	ff 90       	pop	r15
    33ec:	ef 90       	pop	r14
    33ee:	0f 90       	pop	r0
    33f0:	0f be       	out	0x3f, r0	; 63
    33f2:	0f 90       	pop	r0
    33f4:	1f 90       	pop	r1
    33f6:	18 95       	reti

000033f8 <send_DAC_value>:
	return ADC;
}

void send_DAC_value(uint16_t val)
{
	PORTB &= ~(1<<PORTB4); //turn off /ss
    33f8:	2c 98       	cbi	0x05, 4	; 5
	
	//code to update outputs and load to DACA is 1001
	val = val << 2;
    33fa:	88 0f       	add	r24, r24
    33fc:	99 1f       	adc	r25, r25
    33fe:	88 0f       	add	r24, r24
    3400:	99 1f       	adc	r25, r25
	val |= (0b1001 << 12);
    3402:	90 69       	ori	r25, 0x90	; 144
	
	SPDR0 = val >> 8; //upper byte first
    3404:	9e bd       	out	0x2e, r25	; 46
	
	while(!(SPSR0 & 1<<SPIF0)); //wait until SPIF is set
    3406:	0d b4       	in	r0, 0x2d	; 45
    3408:	07 fe       	sbrs	r0, 7
    340a:	fd cf       	rjmp	.-6      	; 0x3406 <send_DAC_value+0xe>
	
	SPDR0 = (0xFF & val); //send lower byte
    340c:	8e bd       	out	0x2e, r24	; 46
	
	while(!(SPSR0 & 1<<SPIF0)); //wait until lower byte is done
    340e:	0d b4       	in	r0, 0x2d	; 45
    3410:	07 fe       	sbrs	r0, 7
    3412:	fd cf       	rjmp	.-6      	; 0x340e <send_DAC_value+0x16>
	
	PORTB |= 1<<PORTB4; //toggle /ss to finish
    3414:	2c 9a       	sbi	0x05, 4	; 5
    3416:	08 95       	ret

00003418 <__vector_16>:
	
	sei();
}

ISR(TIMER0_COMPA_vect) //send current dac value of counter, if at last value, turn off TC0 and finish set up of other stuff
{
    3418:	1f 92       	push	r1
    341a:	0f 92       	push	r0
    341c:	0f b6       	in	r0, 0x3f	; 63
    341e:	0f 92       	push	r0
    3420:	11 24       	eor	r1, r1
    3422:	2f 93       	push	r18
    3424:	3f 93       	push	r19
    3426:	4f 93       	push	r20
    3428:	5f 93       	push	r21
    342a:	6f 93       	push	r22
    342c:	7f 93       	push	r23
    342e:	8f 93       	push	r24
    3430:	9f 93       	push	r25
    3432:	af 93       	push	r26
    3434:	bf 93       	push	r27
    3436:	ef 93       	push	r30
    3438:	ff 93       	push	r31
	IOPORT ^= (1 << PIND7); //50 percent duty cycle led during boot
    343a:	8b b1       	in	r24, 0x0b	; 11
    343c:	80 58       	subi	r24, 0x80	; 128
    343e:	8b b9       	out	0x0b, r24	; 11
	uint16_t word = pgm_read_word(&boot_sound[sample_count++]);
    3440:	20 91 45 01 	lds	r18, 0x0145
    3444:	30 91 46 01 	lds	r19, 0x0146
    3448:	f9 01       	movw	r30, r18
    344a:	ee 0f       	add	r30, r30
    344c:	ff 1f       	adc	r31, r31
    344e:	e4 58       	subi	r30, 0x84	; 132
    3450:	ff 4f       	sbci	r31, 0xFF	; 255
    3452:	2f 5f       	subi	r18, 0xFF	; 255
    3454:	3f 4f       	sbci	r19, 0xFF	; 255
    3456:	30 93 46 01 	sts	0x0146, r19
    345a:	20 93 45 01 	sts	0x0145, r18
    345e:	45 91       	lpm	r20, Z+
    3460:	54 91       	lpm	r21, Z
    3462:	84 2f       	mov	r24, r20
    3464:	95 2f       	mov	r25, r21
	if(sample_count >= ARRAYLENGTH) doneBooting = 1;
    3466:	20 37       	cpi	r18, 0x70	; 112
    3468:	37 41       	sbci	r19, 0x17	; 23
    346a:	18 f0       	brcs	.+6      	; 0x3472 <__vector_16+0x5a>
    346c:	21 e0       	ldi	r18, 0x01	; 1
    346e:	20 93 1a 01 	sts	0x011A, r18
	send_DAC_value(word);
    3472:	0e 94 fc 19 	call	0x33f8	; 0x33f8 <send_DAC_value>
}
    3476:	ff 91       	pop	r31
    3478:	ef 91       	pop	r30
    347a:	bf 91       	pop	r27
    347c:	af 91       	pop	r26
    347e:	9f 91       	pop	r25
    3480:	8f 91       	pop	r24
    3482:	7f 91       	pop	r23
    3484:	6f 91       	pop	r22
    3486:	5f 91       	pop	r21
    3488:	4f 91       	pop	r20
    348a:	3f 91       	pop	r19
    348c:	2f 91       	pop	r18
    348e:	0f 90       	pop	r0
    3490:	0f be       	out	0x3f, r0	; 63
    3492:	0f 90       	pop	r0
    3494:	1f 90       	pop	r1
    3496:	18 95       	reti

00003498 <__subsf3>:
    3498:	50 58       	subi	r21, 0x80	; 128

0000349a <__addsf3>:
    349a:	bb 27       	eor	r27, r27
    349c:	aa 27       	eor	r26, r26
    349e:	0e d0       	rcall	.+28     	; 0x34bc <__addsf3x>
    34a0:	48 c1       	rjmp	.+656    	; 0x3732 <__fp_round>
    34a2:	39 d1       	rcall	.+626    	; 0x3716 <__fp_pscA>
    34a4:	30 f0       	brcs	.+12     	; 0x34b2 <__addsf3+0x18>
    34a6:	3e d1       	rcall	.+636    	; 0x3724 <__fp_pscB>
    34a8:	20 f0       	brcs	.+8      	; 0x34b2 <__addsf3+0x18>
    34aa:	31 f4       	brne	.+12     	; 0x34b8 <__addsf3+0x1e>
    34ac:	9f 3f       	cpi	r25, 0xFF	; 255
    34ae:	11 f4       	brne	.+4      	; 0x34b4 <__addsf3+0x1a>
    34b0:	1e f4       	brtc	.+6      	; 0x34b8 <__addsf3+0x1e>
    34b2:	2e c1       	rjmp	.+604    	; 0x3710 <__fp_nan>
    34b4:	0e f4       	brtc	.+2      	; 0x34b8 <__addsf3+0x1e>
    34b6:	e0 95       	com	r30
    34b8:	e7 fb       	bst	r30, 7
    34ba:	24 c1       	rjmp	.+584    	; 0x3704 <__fp_inf>

000034bc <__addsf3x>:
    34bc:	e9 2f       	mov	r30, r25
    34be:	4a d1       	rcall	.+660    	; 0x3754 <__fp_split3>
    34c0:	80 f3       	brcs	.-32     	; 0x34a2 <__addsf3+0x8>
    34c2:	ba 17       	cp	r27, r26
    34c4:	62 07       	cpc	r22, r18
    34c6:	73 07       	cpc	r23, r19
    34c8:	84 07       	cpc	r24, r20
    34ca:	95 07       	cpc	r25, r21
    34cc:	18 f0       	brcs	.+6      	; 0x34d4 <__addsf3x+0x18>
    34ce:	71 f4       	brne	.+28     	; 0x34ec <__addsf3x+0x30>
    34d0:	9e f5       	brtc	.+102    	; 0x3538 <__addsf3x+0x7c>
    34d2:	62 c1       	rjmp	.+708    	; 0x3798 <__fp_zero>
    34d4:	0e f4       	brtc	.+2      	; 0x34d8 <__addsf3x+0x1c>
    34d6:	e0 95       	com	r30
    34d8:	0b 2e       	mov	r0, r27
    34da:	ba 2f       	mov	r27, r26
    34dc:	a0 2d       	mov	r26, r0
    34de:	0b 01       	movw	r0, r22
    34e0:	b9 01       	movw	r22, r18
    34e2:	90 01       	movw	r18, r0
    34e4:	0c 01       	movw	r0, r24
    34e6:	ca 01       	movw	r24, r20
    34e8:	a0 01       	movw	r20, r0
    34ea:	11 24       	eor	r1, r1
    34ec:	ff 27       	eor	r31, r31
    34ee:	59 1b       	sub	r21, r25
    34f0:	99 f0       	breq	.+38     	; 0x3518 <__addsf3x+0x5c>
    34f2:	59 3f       	cpi	r21, 0xF9	; 249
    34f4:	50 f4       	brcc	.+20     	; 0x350a <__addsf3x+0x4e>
    34f6:	50 3e       	cpi	r21, 0xE0	; 224
    34f8:	68 f1       	brcs	.+90     	; 0x3554 <__addsf3x+0x98>
    34fa:	1a 16       	cp	r1, r26
    34fc:	f0 40       	sbci	r31, 0x00	; 0
    34fe:	a2 2f       	mov	r26, r18
    3500:	23 2f       	mov	r18, r19
    3502:	34 2f       	mov	r19, r20
    3504:	44 27       	eor	r20, r20
    3506:	58 5f       	subi	r21, 0xF8	; 248
    3508:	f3 cf       	rjmp	.-26     	; 0x34f0 <__addsf3x+0x34>
    350a:	46 95       	lsr	r20
    350c:	37 95       	ror	r19
    350e:	27 95       	ror	r18
    3510:	a7 95       	ror	r26
    3512:	f0 40       	sbci	r31, 0x00	; 0
    3514:	53 95       	inc	r21
    3516:	c9 f7       	brne	.-14     	; 0x350a <__addsf3x+0x4e>
    3518:	7e f4       	brtc	.+30     	; 0x3538 <__addsf3x+0x7c>
    351a:	1f 16       	cp	r1, r31
    351c:	ba 0b       	sbc	r27, r26
    351e:	62 0b       	sbc	r22, r18
    3520:	73 0b       	sbc	r23, r19
    3522:	84 0b       	sbc	r24, r20
    3524:	ba f0       	brmi	.+46     	; 0x3554 <__addsf3x+0x98>
    3526:	91 50       	subi	r25, 0x01	; 1
    3528:	a1 f0       	breq	.+40     	; 0x3552 <__addsf3x+0x96>
    352a:	ff 0f       	add	r31, r31
    352c:	bb 1f       	adc	r27, r27
    352e:	66 1f       	adc	r22, r22
    3530:	77 1f       	adc	r23, r23
    3532:	88 1f       	adc	r24, r24
    3534:	c2 f7       	brpl	.-16     	; 0x3526 <__addsf3x+0x6a>
    3536:	0e c0       	rjmp	.+28     	; 0x3554 <__addsf3x+0x98>
    3538:	ba 0f       	add	r27, r26
    353a:	62 1f       	adc	r22, r18
    353c:	73 1f       	adc	r23, r19
    353e:	84 1f       	adc	r24, r20
    3540:	48 f4       	brcc	.+18     	; 0x3554 <__addsf3x+0x98>
    3542:	87 95       	ror	r24
    3544:	77 95       	ror	r23
    3546:	67 95       	ror	r22
    3548:	b7 95       	ror	r27
    354a:	f7 95       	ror	r31
    354c:	9e 3f       	cpi	r25, 0xFE	; 254
    354e:	08 f0       	brcs	.+2      	; 0x3552 <__addsf3x+0x96>
    3550:	b3 cf       	rjmp	.-154    	; 0x34b8 <__addsf3+0x1e>
    3552:	93 95       	inc	r25
    3554:	88 0f       	add	r24, r24
    3556:	08 f0       	brcs	.+2      	; 0x355a <__addsf3x+0x9e>
    3558:	99 27       	eor	r25, r25
    355a:	ee 0f       	add	r30, r30
    355c:	97 95       	ror	r25
    355e:	87 95       	ror	r24
    3560:	08 95       	ret

00003562 <__divsf3>:
    3562:	0c d0       	rcall	.+24     	; 0x357c <__divsf3x>
    3564:	e6 c0       	rjmp	.+460    	; 0x3732 <__fp_round>
    3566:	de d0       	rcall	.+444    	; 0x3724 <__fp_pscB>
    3568:	40 f0       	brcs	.+16     	; 0x357a <__divsf3+0x18>
    356a:	d5 d0       	rcall	.+426    	; 0x3716 <__fp_pscA>
    356c:	30 f0       	brcs	.+12     	; 0x357a <__divsf3+0x18>
    356e:	21 f4       	brne	.+8      	; 0x3578 <__divsf3+0x16>
    3570:	5f 3f       	cpi	r21, 0xFF	; 255
    3572:	19 f0       	breq	.+6      	; 0x357a <__divsf3+0x18>
    3574:	c7 c0       	rjmp	.+398    	; 0x3704 <__fp_inf>
    3576:	51 11       	cpse	r21, r1
    3578:	10 c1       	rjmp	.+544    	; 0x379a <__fp_szero>
    357a:	ca c0       	rjmp	.+404    	; 0x3710 <__fp_nan>

0000357c <__divsf3x>:
    357c:	eb d0       	rcall	.+470    	; 0x3754 <__fp_split3>
    357e:	98 f3       	brcs	.-26     	; 0x3566 <__divsf3+0x4>

00003580 <__divsf3_pse>:
    3580:	99 23       	and	r25, r25
    3582:	c9 f3       	breq	.-14     	; 0x3576 <__divsf3+0x14>
    3584:	55 23       	and	r21, r21
    3586:	b1 f3       	breq	.-20     	; 0x3574 <__divsf3+0x12>
    3588:	95 1b       	sub	r25, r21
    358a:	55 0b       	sbc	r21, r21
    358c:	bb 27       	eor	r27, r27
    358e:	aa 27       	eor	r26, r26
    3590:	62 17       	cp	r22, r18
    3592:	73 07       	cpc	r23, r19
    3594:	84 07       	cpc	r24, r20
    3596:	38 f0       	brcs	.+14     	; 0x35a6 <__divsf3_pse+0x26>
    3598:	9f 5f       	subi	r25, 0xFF	; 255
    359a:	5f 4f       	sbci	r21, 0xFF	; 255
    359c:	22 0f       	add	r18, r18
    359e:	33 1f       	adc	r19, r19
    35a0:	44 1f       	adc	r20, r20
    35a2:	aa 1f       	adc	r26, r26
    35a4:	a9 f3       	breq	.-22     	; 0x3590 <__divsf3_pse+0x10>
    35a6:	33 d0       	rcall	.+102    	; 0x360e <__divsf3_pse+0x8e>
    35a8:	0e 2e       	mov	r0, r30
    35aa:	3a f0       	brmi	.+14     	; 0x35ba <__divsf3_pse+0x3a>
    35ac:	e0 e8       	ldi	r30, 0x80	; 128
    35ae:	30 d0       	rcall	.+96     	; 0x3610 <__divsf3_pse+0x90>
    35b0:	91 50       	subi	r25, 0x01	; 1
    35b2:	50 40       	sbci	r21, 0x00	; 0
    35b4:	e6 95       	lsr	r30
    35b6:	00 1c       	adc	r0, r0
    35b8:	ca f7       	brpl	.-14     	; 0x35ac <__divsf3_pse+0x2c>
    35ba:	29 d0       	rcall	.+82     	; 0x360e <__divsf3_pse+0x8e>
    35bc:	fe 2f       	mov	r31, r30
    35be:	27 d0       	rcall	.+78     	; 0x360e <__divsf3_pse+0x8e>
    35c0:	66 0f       	add	r22, r22
    35c2:	77 1f       	adc	r23, r23
    35c4:	88 1f       	adc	r24, r24
    35c6:	bb 1f       	adc	r27, r27
    35c8:	26 17       	cp	r18, r22
    35ca:	37 07       	cpc	r19, r23
    35cc:	48 07       	cpc	r20, r24
    35ce:	ab 07       	cpc	r26, r27
    35d0:	b0 e8       	ldi	r27, 0x80	; 128
    35d2:	09 f0       	breq	.+2      	; 0x35d6 <__divsf3_pse+0x56>
    35d4:	bb 0b       	sbc	r27, r27
    35d6:	80 2d       	mov	r24, r0
    35d8:	bf 01       	movw	r22, r30
    35da:	ff 27       	eor	r31, r31
    35dc:	93 58       	subi	r25, 0x83	; 131
    35de:	5f 4f       	sbci	r21, 0xFF	; 255
    35e0:	2a f0       	brmi	.+10     	; 0x35ec <__divsf3_pse+0x6c>
    35e2:	9e 3f       	cpi	r25, 0xFE	; 254
    35e4:	51 05       	cpc	r21, r1
    35e6:	68 f0       	brcs	.+26     	; 0x3602 <__divsf3_pse+0x82>
    35e8:	8d c0       	rjmp	.+282    	; 0x3704 <__fp_inf>
    35ea:	d7 c0       	rjmp	.+430    	; 0x379a <__fp_szero>
    35ec:	5f 3f       	cpi	r21, 0xFF	; 255
    35ee:	ec f3       	brlt	.-6      	; 0x35ea <__divsf3_pse+0x6a>
    35f0:	98 3e       	cpi	r25, 0xE8	; 232
    35f2:	dc f3       	brlt	.-10     	; 0x35ea <__divsf3_pse+0x6a>
    35f4:	86 95       	lsr	r24
    35f6:	77 95       	ror	r23
    35f8:	67 95       	ror	r22
    35fa:	b7 95       	ror	r27
    35fc:	f7 95       	ror	r31
    35fe:	9f 5f       	subi	r25, 0xFF	; 255
    3600:	c9 f7       	brne	.-14     	; 0x35f4 <__divsf3_pse+0x74>
    3602:	88 0f       	add	r24, r24
    3604:	91 1d       	adc	r25, r1
    3606:	96 95       	lsr	r25
    3608:	87 95       	ror	r24
    360a:	97 f9       	bld	r25, 7
    360c:	08 95       	ret
    360e:	e1 e0       	ldi	r30, 0x01	; 1
    3610:	66 0f       	add	r22, r22
    3612:	77 1f       	adc	r23, r23
    3614:	88 1f       	adc	r24, r24
    3616:	bb 1f       	adc	r27, r27
    3618:	62 17       	cp	r22, r18
    361a:	73 07       	cpc	r23, r19
    361c:	84 07       	cpc	r24, r20
    361e:	ba 07       	cpc	r27, r26
    3620:	20 f0       	brcs	.+8      	; 0x362a <__divsf3_pse+0xaa>
    3622:	62 1b       	sub	r22, r18
    3624:	73 0b       	sbc	r23, r19
    3626:	84 0b       	sbc	r24, r20
    3628:	ba 0b       	sbc	r27, r26
    362a:	ee 1f       	adc	r30, r30
    362c:	88 f7       	brcc	.-30     	; 0x3610 <__divsf3_pse+0x90>
    362e:	e0 95       	com	r30
    3630:	08 95       	ret

00003632 <__fixunssfsi>:
    3632:	98 d0       	rcall	.+304    	; 0x3764 <__fp_splitA>
    3634:	88 f0       	brcs	.+34     	; 0x3658 <__fixunssfsi+0x26>
    3636:	9f 57       	subi	r25, 0x7F	; 127
    3638:	90 f0       	brcs	.+36     	; 0x365e <__fixunssfsi+0x2c>
    363a:	b9 2f       	mov	r27, r25
    363c:	99 27       	eor	r25, r25
    363e:	b7 51       	subi	r27, 0x17	; 23
    3640:	a0 f0       	brcs	.+40     	; 0x366a <__fixunssfsi+0x38>
    3642:	d1 f0       	breq	.+52     	; 0x3678 <__fixunssfsi+0x46>
    3644:	66 0f       	add	r22, r22
    3646:	77 1f       	adc	r23, r23
    3648:	88 1f       	adc	r24, r24
    364a:	99 1f       	adc	r25, r25
    364c:	1a f0       	brmi	.+6      	; 0x3654 <__fixunssfsi+0x22>
    364e:	ba 95       	dec	r27
    3650:	c9 f7       	brne	.-14     	; 0x3644 <__fixunssfsi+0x12>
    3652:	12 c0       	rjmp	.+36     	; 0x3678 <__fixunssfsi+0x46>
    3654:	b1 30       	cpi	r27, 0x01	; 1
    3656:	81 f0       	breq	.+32     	; 0x3678 <__fixunssfsi+0x46>
    3658:	9f d0       	rcall	.+318    	; 0x3798 <__fp_zero>
    365a:	b1 e0       	ldi	r27, 0x01	; 1
    365c:	08 95       	ret
    365e:	9c c0       	rjmp	.+312    	; 0x3798 <__fp_zero>
    3660:	67 2f       	mov	r22, r23
    3662:	78 2f       	mov	r23, r24
    3664:	88 27       	eor	r24, r24
    3666:	b8 5f       	subi	r27, 0xF8	; 248
    3668:	39 f0       	breq	.+14     	; 0x3678 <__fixunssfsi+0x46>
    366a:	b9 3f       	cpi	r27, 0xF9	; 249
    366c:	cc f3       	brlt	.-14     	; 0x3660 <__fixunssfsi+0x2e>
    366e:	86 95       	lsr	r24
    3670:	77 95       	ror	r23
    3672:	67 95       	ror	r22
    3674:	b3 95       	inc	r27
    3676:	d9 f7       	brne	.-10     	; 0x366e <__fixunssfsi+0x3c>
    3678:	3e f4       	brtc	.+14     	; 0x3688 <__fixunssfsi+0x56>
    367a:	90 95       	com	r25
    367c:	80 95       	com	r24
    367e:	70 95       	com	r23
    3680:	61 95       	neg	r22
    3682:	7f 4f       	sbci	r23, 0xFF	; 255
    3684:	8f 4f       	sbci	r24, 0xFF	; 255
    3686:	9f 4f       	sbci	r25, 0xFF	; 255
    3688:	08 95       	ret

0000368a <__floatunsisf>:
    368a:	e8 94       	clt
    368c:	09 c0       	rjmp	.+18     	; 0x36a0 <__floatsisf+0x12>

0000368e <__floatsisf>:
    368e:	97 fb       	bst	r25, 7
    3690:	3e f4       	brtc	.+14     	; 0x36a0 <__floatsisf+0x12>
    3692:	90 95       	com	r25
    3694:	80 95       	com	r24
    3696:	70 95       	com	r23
    3698:	61 95       	neg	r22
    369a:	7f 4f       	sbci	r23, 0xFF	; 255
    369c:	8f 4f       	sbci	r24, 0xFF	; 255
    369e:	9f 4f       	sbci	r25, 0xFF	; 255
    36a0:	99 23       	and	r25, r25
    36a2:	a9 f0       	breq	.+42     	; 0x36ce <__floatsisf+0x40>
    36a4:	f9 2f       	mov	r31, r25
    36a6:	96 e9       	ldi	r25, 0x96	; 150
    36a8:	bb 27       	eor	r27, r27
    36aa:	93 95       	inc	r25
    36ac:	f6 95       	lsr	r31
    36ae:	87 95       	ror	r24
    36b0:	77 95       	ror	r23
    36b2:	67 95       	ror	r22
    36b4:	b7 95       	ror	r27
    36b6:	f1 11       	cpse	r31, r1
    36b8:	f8 cf       	rjmp	.-16     	; 0x36aa <__floatsisf+0x1c>
    36ba:	fa f4       	brpl	.+62     	; 0x36fa <__floatsisf+0x6c>
    36bc:	bb 0f       	add	r27, r27
    36be:	11 f4       	brne	.+4      	; 0x36c4 <__floatsisf+0x36>
    36c0:	60 ff       	sbrs	r22, 0
    36c2:	1b c0       	rjmp	.+54     	; 0x36fa <__floatsisf+0x6c>
    36c4:	6f 5f       	subi	r22, 0xFF	; 255
    36c6:	7f 4f       	sbci	r23, 0xFF	; 255
    36c8:	8f 4f       	sbci	r24, 0xFF	; 255
    36ca:	9f 4f       	sbci	r25, 0xFF	; 255
    36cc:	16 c0       	rjmp	.+44     	; 0x36fa <__floatsisf+0x6c>
    36ce:	88 23       	and	r24, r24
    36d0:	11 f0       	breq	.+4      	; 0x36d6 <__floatsisf+0x48>
    36d2:	96 e9       	ldi	r25, 0x96	; 150
    36d4:	11 c0       	rjmp	.+34     	; 0x36f8 <__floatsisf+0x6a>
    36d6:	77 23       	and	r23, r23
    36d8:	21 f0       	breq	.+8      	; 0x36e2 <__floatsisf+0x54>
    36da:	9e e8       	ldi	r25, 0x8E	; 142
    36dc:	87 2f       	mov	r24, r23
    36de:	76 2f       	mov	r23, r22
    36e0:	05 c0       	rjmp	.+10     	; 0x36ec <__floatsisf+0x5e>
    36e2:	66 23       	and	r22, r22
    36e4:	71 f0       	breq	.+28     	; 0x3702 <__floatsisf+0x74>
    36e6:	96 e8       	ldi	r25, 0x86	; 134
    36e8:	86 2f       	mov	r24, r22
    36ea:	70 e0       	ldi	r23, 0x00	; 0
    36ec:	60 e0       	ldi	r22, 0x00	; 0
    36ee:	2a f0       	brmi	.+10     	; 0x36fa <__floatsisf+0x6c>
    36f0:	9a 95       	dec	r25
    36f2:	66 0f       	add	r22, r22
    36f4:	77 1f       	adc	r23, r23
    36f6:	88 1f       	adc	r24, r24
    36f8:	da f7       	brpl	.-10     	; 0x36f0 <__floatsisf+0x62>
    36fa:	88 0f       	add	r24, r24
    36fc:	96 95       	lsr	r25
    36fe:	87 95       	ror	r24
    3700:	97 f9       	bld	r25, 7
    3702:	08 95       	ret

00003704 <__fp_inf>:
    3704:	97 f9       	bld	r25, 7
    3706:	9f 67       	ori	r25, 0x7F	; 127
    3708:	80 e8       	ldi	r24, 0x80	; 128
    370a:	70 e0       	ldi	r23, 0x00	; 0
    370c:	60 e0       	ldi	r22, 0x00	; 0
    370e:	08 95       	ret

00003710 <__fp_nan>:
    3710:	9f ef       	ldi	r25, 0xFF	; 255
    3712:	80 ec       	ldi	r24, 0xC0	; 192
    3714:	08 95       	ret

00003716 <__fp_pscA>:
    3716:	00 24       	eor	r0, r0
    3718:	0a 94       	dec	r0
    371a:	16 16       	cp	r1, r22
    371c:	17 06       	cpc	r1, r23
    371e:	18 06       	cpc	r1, r24
    3720:	09 06       	cpc	r0, r25
    3722:	08 95       	ret

00003724 <__fp_pscB>:
    3724:	00 24       	eor	r0, r0
    3726:	0a 94       	dec	r0
    3728:	12 16       	cp	r1, r18
    372a:	13 06       	cpc	r1, r19
    372c:	14 06       	cpc	r1, r20
    372e:	05 06       	cpc	r0, r21
    3730:	08 95       	ret

00003732 <__fp_round>:
    3732:	09 2e       	mov	r0, r25
    3734:	03 94       	inc	r0
    3736:	00 0c       	add	r0, r0
    3738:	11 f4       	brne	.+4      	; 0x373e <__fp_round+0xc>
    373a:	88 23       	and	r24, r24
    373c:	52 f0       	brmi	.+20     	; 0x3752 <__fp_round+0x20>
    373e:	bb 0f       	add	r27, r27
    3740:	40 f4       	brcc	.+16     	; 0x3752 <__fp_round+0x20>
    3742:	bf 2b       	or	r27, r31
    3744:	11 f4       	brne	.+4      	; 0x374a <__fp_round+0x18>
    3746:	60 ff       	sbrs	r22, 0
    3748:	04 c0       	rjmp	.+8      	; 0x3752 <__fp_round+0x20>
    374a:	6f 5f       	subi	r22, 0xFF	; 255
    374c:	7f 4f       	sbci	r23, 0xFF	; 255
    374e:	8f 4f       	sbci	r24, 0xFF	; 255
    3750:	9f 4f       	sbci	r25, 0xFF	; 255
    3752:	08 95       	ret

00003754 <__fp_split3>:
    3754:	57 fd       	sbrc	r21, 7
    3756:	90 58       	subi	r25, 0x80	; 128
    3758:	44 0f       	add	r20, r20
    375a:	55 1f       	adc	r21, r21
    375c:	59 f0       	breq	.+22     	; 0x3774 <__fp_splitA+0x10>
    375e:	5f 3f       	cpi	r21, 0xFF	; 255
    3760:	71 f0       	breq	.+28     	; 0x377e <__fp_splitA+0x1a>
    3762:	47 95       	ror	r20

00003764 <__fp_splitA>:
    3764:	88 0f       	add	r24, r24
    3766:	97 fb       	bst	r25, 7
    3768:	99 1f       	adc	r25, r25
    376a:	61 f0       	breq	.+24     	; 0x3784 <__fp_splitA+0x20>
    376c:	9f 3f       	cpi	r25, 0xFF	; 255
    376e:	79 f0       	breq	.+30     	; 0x378e <__fp_splitA+0x2a>
    3770:	87 95       	ror	r24
    3772:	08 95       	ret
    3774:	12 16       	cp	r1, r18
    3776:	13 06       	cpc	r1, r19
    3778:	14 06       	cpc	r1, r20
    377a:	55 1f       	adc	r21, r21
    377c:	f2 cf       	rjmp	.-28     	; 0x3762 <__fp_split3+0xe>
    377e:	46 95       	lsr	r20
    3780:	f1 df       	rcall	.-30     	; 0x3764 <__fp_splitA>
    3782:	08 c0       	rjmp	.+16     	; 0x3794 <__fp_splitA+0x30>
    3784:	16 16       	cp	r1, r22
    3786:	17 06       	cpc	r1, r23
    3788:	18 06       	cpc	r1, r24
    378a:	99 1f       	adc	r25, r25
    378c:	f1 cf       	rjmp	.-30     	; 0x3770 <__fp_splitA+0xc>
    378e:	86 95       	lsr	r24
    3790:	71 05       	cpc	r23, r1
    3792:	61 05       	cpc	r22, r1
    3794:	08 94       	sec
    3796:	08 95       	ret

00003798 <__fp_zero>:
    3798:	e8 94       	clt

0000379a <__fp_szero>:
    379a:	bb 27       	eor	r27, r27
    379c:	66 27       	eor	r22, r22
    379e:	77 27       	eor	r23, r23
    37a0:	cb 01       	movw	r24, r22
    37a2:	97 f9       	bld	r25, 7
    37a4:	08 95       	ret

000037a6 <__mulsf3>:
    37a6:	0b d0       	rcall	.+22     	; 0x37be <__mulsf3x>
    37a8:	c4 cf       	rjmp	.-120    	; 0x3732 <__fp_round>
    37aa:	b5 df       	rcall	.-150    	; 0x3716 <__fp_pscA>
    37ac:	28 f0       	brcs	.+10     	; 0x37b8 <__mulsf3+0x12>
    37ae:	ba df       	rcall	.-140    	; 0x3724 <__fp_pscB>
    37b0:	18 f0       	brcs	.+6      	; 0x37b8 <__mulsf3+0x12>
    37b2:	95 23       	and	r25, r21
    37b4:	09 f0       	breq	.+2      	; 0x37b8 <__mulsf3+0x12>
    37b6:	a6 cf       	rjmp	.-180    	; 0x3704 <__fp_inf>
    37b8:	ab cf       	rjmp	.-170    	; 0x3710 <__fp_nan>
    37ba:	11 24       	eor	r1, r1
    37bc:	ee cf       	rjmp	.-36     	; 0x379a <__fp_szero>

000037be <__mulsf3x>:
    37be:	ca df       	rcall	.-108    	; 0x3754 <__fp_split3>
    37c0:	a0 f3       	brcs	.-24     	; 0x37aa <__mulsf3+0x4>

000037c2 <__mulsf3_pse>:
    37c2:	95 9f       	mul	r25, r21
    37c4:	d1 f3       	breq	.-12     	; 0x37ba <__mulsf3+0x14>
    37c6:	95 0f       	add	r25, r21
    37c8:	50 e0       	ldi	r21, 0x00	; 0
    37ca:	55 1f       	adc	r21, r21
    37cc:	62 9f       	mul	r22, r18
    37ce:	f0 01       	movw	r30, r0
    37d0:	72 9f       	mul	r23, r18
    37d2:	bb 27       	eor	r27, r27
    37d4:	f0 0d       	add	r31, r0
    37d6:	b1 1d       	adc	r27, r1
    37d8:	63 9f       	mul	r22, r19
    37da:	aa 27       	eor	r26, r26
    37dc:	f0 0d       	add	r31, r0
    37de:	b1 1d       	adc	r27, r1
    37e0:	aa 1f       	adc	r26, r26
    37e2:	64 9f       	mul	r22, r20
    37e4:	66 27       	eor	r22, r22
    37e6:	b0 0d       	add	r27, r0
    37e8:	a1 1d       	adc	r26, r1
    37ea:	66 1f       	adc	r22, r22
    37ec:	82 9f       	mul	r24, r18
    37ee:	22 27       	eor	r18, r18
    37f0:	b0 0d       	add	r27, r0
    37f2:	a1 1d       	adc	r26, r1
    37f4:	62 1f       	adc	r22, r18
    37f6:	73 9f       	mul	r23, r19
    37f8:	b0 0d       	add	r27, r0
    37fa:	a1 1d       	adc	r26, r1
    37fc:	62 1f       	adc	r22, r18
    37fe:	83 9f       	mul	r24, r19
    3800:	a0 0d       	add	r26, r0
    3802:	61 1d       	adc	r22, r1
    3804:	22 1f       	adc	r18, r18
    3806:	74 9f       	mul	r23, r20
    3808:	33 27       	eor	r19, r19
    380a:	a0 0d       	add	r26, r0
    380c:	61 1d       	adc	r22, r1
    380e:	23 1f       	adc	r18, r19
    3810:	84 9f       	mul	r24, r20
    3812:	60 0d       	add	r22, r0
    3814:	21 1d       	adc	r18, r1
    3816:	82 2f       	mov	r24, r18
    3818:	76 2f       	mov	r23, r22
    381a:	6a 2f       	mov	r22, r26
    381c:	11 24       	eor	r1, r1
    381e:	9f 57       	subi	r25, 0x7F	; 127
    3820:	50 40       	sbci	r21, 0x00	; 0
    3822:	8a f0       	brmi	.+34     	; 0x3846 <__mulsf3_pse+0x84>
    3824:	e1 f0       	breq	.+56     	; 0x385e <__mulsf3_pse+0x9c>
    3826:	88 23       	and	r24, r24
    3828:	4a f0       	brmi	.+18     	; 0x383c <__mulsf3_pse+0x7a>
    382a:	ee 0f       	add	r30, r30
    382c:	ff 1f       	adc	r31, r31
    382e:	bb 1f       	adc	r27, r27
    3830:	66 1f       	adc	r22, r22
    3832:	77 1f       	adc	r23, r23
    3834:	88 1f       	adc	r24, r24
    3836:	91 50       	subi	r25, 0x01	; 1
    3838:	50 40       	sbci	r21, 0x00	; 0
    383a:	a9 f7       	brne	.-22     	; 0x3826 <__mulsf3_pse+0x64>
    383c:	9e 3f       	cpi	r25, 0xFE	; 254
    383e:	51 05       	cpc	r21, r1
    3840:	70 f0       	brcs	.+28     	; 0x385e <__mulsf3_pse+0x9c>
    3842:	60 cf       	rjmp	.-320    	; 0x3704 <__fp_inf>
    3844:	aa cf       	rjmp	.-172    	; 0x379a <__fp_szero>
    3846:	5f 3f       	cpi	r21, 0xFF	; 255
    3848:	ec f3       	brlt	.-6      	; 0x3844 <__mulsf3_pse+0x82>
    384a:	98 3e       	cpi	r25, 0xE8	; 232
    384c:	dc f3       	brlt	.-10     	; 0x3844 <__mulsf3_pse+0x82>
    384e:	86 95       	lsr	r24
    3850:	77 95       	ror	r23
    3852:	67 95       	ror	r22
    3854:	b7 95       	ror	r27
    3856:	f7 95       	ror	r31
    3858:	e7 95       	ror	r30
    385a:	9f 5f       	subi	r25, 0xFF	; 255
    385c:	c1 f7       	brne	.-16     	; 0x384e <__mulsf3_pse+0x8c>
    385e:	fe 2b       	or	r31, r30
    3860:	88 0f       	add	r24, r24
    3862:	91 1d       	adc	r25, r1
    3864:	96 95       	lsr	r25
    3866:	87 95       	ror	r24
    3868:	97 f9       	bld	r25, 7
    386a:	08 95       	ret

0000386c <trunc>:
    386c:	2f d0       	rcall	.+94     	; 0x38cc <__fp_trunc>
    386e:	20 f0       	brcs	.+8      	; 0x3878 <trunc+0xc>
    3870:	9f 37       	cpi	r25, 0x7F	; 127
    3872:	08 f4       	brcc	.+2      	; 0x3876 <trunc+0xa>
    3874:	92 cf       	rjmp	.-220    	; 0x379a <__fp_szero>
    3876:	01 c0       	rjmp	.+2      	; 0x387a <__fp_mintl>
    3878:	1b c0       	rjmp	.+54     	; 0x38b0 <__fp_mpack>

0000387a <__fp_mintl>:
    387a:	88 23       	and	r24, r24
    387c:	71 f4       	brne	.+28     	; 0x389a <__fp_mintl+0x20>
    387e:	77 23       	and	r23, r23
    3880:	21 f0       	breq	.+8      	; 0x388a <__fp_mintl+0x10>
    3882:	98 50       	subi	r25, 0x08	; 8
    3884:	87 2b       	or	r24, r23
    3886:	76 2f       	mov	r23, r22
    3888:	07 c0       	rjmp	.+14     	; 0x3898 <__fp_mintl+0x1e>
    388a:	66 23       	and	r22, r22
    388c:	11 f4       	brne	.+4      	; 0x3892 <__fp_mintl+0x18>
    388e:	99 27       	eor	r25, r25
    3890:	0d c0       	rjmp	.+26     	; 0x38ac <__fp_mintl+0x32>
    3892:	90 51       	subi	r25, 0x10	; 16
    3894:	86 2b       	or	r24, r22
    3896:	70 e0       	ldi	r23, 0x00	; 0
    3898:	60 e0       	ldi	r22, 0x00	; 0
    389a:	2a f0       	brmi	.+10     	; 0x38a6 <__fp_mintl+0x2c>
    389c:	9a 95       	dec	r25
    389e:	66 0f       	add	r22, r22
    38a0:	77 1f       	adc	r23, r23
    38a2:	88 1f       	adc	r24, r24
    38a4:	da f7       	brpl	.-10     	; 0x389c <__fp_mintl+0x22>
    38a6:	88 0f       	add	r24, r24
    38a8:	96 95       	lsr	r25
    38aa:	87 95       	ror	r24
    38ac:	97 f9       	bld	r25, 7
    38ae:	08 95       	ret

000038b0 <__fp_mpack>:
    38b0:	9f 3f       	cpi	r25, 0xFF	; 255
    38b2:	31 f0       	breq	.+12     	; 0x38c0 <__fp_mpack_finite+0xc>

000038b4 <__fp_mpack_finite>:
    38b4:	91 50       	subi	r25, 0x01	; 1
    38b6:	20 f4       	brcc	.+8      	; 0x38c0 <__fp_mpack_finite+0xc>
    38b8:	87 95       	ror	r24
    38ba:	77 95       	ror	r23
    38bc:	67 95       	ror	r22
    38be:	b7 95       	ror	r27
    38c0:	88 0f       	add	r24, r24
    38c2:	91 1d       	adc	r25, r1
    38c4:	96 95       	lsr	r25
    38c6:	87 95       	ror	r24
    38c8:	97 f9       	bld	r25, 7
    38ca:	08 95       	ret

000038cc <__fp_trunc>:
    38cc:	4b df       	rcall	.-362    	; 0x3764 <__fp_splitA>
    38ce:	a0 f0       	brcs	.+40     	; 0x38f8 <__fp_trunc+0x2c>
    38d0:	be e7       	ldi	r27, 0x7E	; 126
    38d2:	b9 17       	cp	r27, r25
    38d4:	88 f4       	brcc	.+34     	; 0x38f8 <__fp_trunc+0x2c>
    38d6:	bb 27       	eor	r27, r27
    38d8:	9f 38       	cpi	r25, 0x8F	; 143
    38da:	60 f4       	brcc	.+24     	; 0x38f4 <__fp_trunc+0x28>
    38dc:	16 16       	cp	r1, r22
    38de:	b1 1d       	adc	r27, r1
    38e0:	67 2f       	mov	r22, r23
    38e2:	78 2f       	mov	r23, r24
    38e4:	88 27       	eor	r24, r24
    38e6:	98 5f       	subi	r25, 0xF8	; 248
    38e8:	f7 cf       	rjmp	.-18     	; 0x38d8 <__fp_trunc+0xc>
    38ea:	86 95       	lsr	r24
    38ec:	77 95       	ror	r23
    38ee:	67 95       	ror	r22
    38f0:	b1 1d       	adc	r27, r1
    38f2:	93 95       	inc	r25
    38f4:	96 39       	cpi	r25, 0x96	; 150
    38f6:	c8 f3       	brcs	.-14     	; 0x38ea <__fp_trunc+0x1e>
    38f8:	08 95       	ret

000038fa <__umulhisi3>:
    38fa:	a2 9f       	mul	r26, r18
    38fc:	b0 01       	movw	r22, r0
    38fe:	b3 9f       	mul	r27, r19
    3900:	c0 01       	movw	r24, r0
    3902:	a3 9f       	mul	r26, r19
    3904:	01 d0       	rcall	.+2      	; 0x3908 <__umulhisi3+0xe>
    3906:	b2 9f       	mul	r27, r18
    3908:	70 0d       	add	r23, r0
    390a:	81 1d       	adc	r24, r1
    390c:	11 24       	eor	r1, r1
    390e:	91 1d       	adc	r25, r1
    3910:	08 95       	ret

00003912 <snprintf>:
    3912:	ae e0       	ldi	r26, 0x0E	; 14
    3914:	b0 e0       	ldi	r27, 0x00	; 0
    3916:	ef e8       	ldi	r30, 0x8F	; 143
    3918:	fc e1       	ldi	r31, 0x1C	; 28
    391a:	0c 94 65 1f 	jmp	0x3eca	; 0x3eca <__prologue_saves__+0x1c>
    391e:	0d 89       	ldd	r16, Y+21	; 0x15
    3920:	1e 89       	ldd	r17, Y+22	; 0x16
    3922:	8f 89       	ldd	r24, Y+23	; 0x17
    3924:	98 8d       	ldd	r25, Y+24	; 0x18
    3926:	26 e0       	ldi	r18, 0x06	; 6
    3928:	2c 83       	std	Y+4, r18	; 0x04
    392a:	1a 83       	std	Y+2, r17	; 0x02
    392c:	09 83       	std	Y+1, r16	; 0x01
    392e:	97 ff       	sbrs	r25, 7
    3930:	02 c0       	rjmp	.+4      	; 0x3936 <snprintf+0x24>
    3932:	80 e0       	ldi	r24, 0x00	; 0
    3934:	90 e8       	ldi	r25, 0x80	; 128
    3936:	01 97       	sbiw	r24, 0x01	; 1
    3938:	9e 83       	std	Y+6, r25	; 0x06
    393a:	8d 83       	std	Y+5, r24	; 0x05
    393c:	ce 01       	movw	r24, r28
    393e:	4b 96       	adiw	r24, 0x1b	; 27
    3940:	ac 01       	movw	r20, r24
    3942:	69 8d       	ldd	r22, Y+25	; 0x19
    3944:	7a 8d       	ldd	r23, Y+26	; 0x1a
    3946:	ce 01       	movw	r24, r28
    3948:	01 96       	adiw	r24, 0x01	; 1
    394a:	0e 94 db 1c 	call	0x39b6	; 0x39b6 <vfprintf>
    394e:	4d 81       	ldd	r20, Y+5	; 0x05
    3950:	5e 81       	ldd	r21, Y+6	; 0x06
    3952:	57 fd       	sbrc	r21, 7
    3954:	0a c0       	rjmp	.+20     	; 0x396a <snprintf+0x58>
    3956:	2f 81       	ldd	r18, Y+7	; 0x07
    3958:	38 85       	ldd	r19, Y+8	; 0x08
    395a:	42 17       	cp	r20, r18
    395c:	53 07       	cpc	r21, r19
    395e:	0c f4       	brge	.+2      	; 0x3962 <snprintf+0x50>
    3960:	9a 01       	movw	r18, r20
    3962:	f8 01       	movw	r30, r16
    3964:	e2 0f       	add	r30, r18
    3966:	f3 1f       	adc	r31, r19
    3968:	10 82       	st	Z, r1
    396a:	2e 96       	adiw	r28, 0x0e	; 14
    396c:	e4 e0       	ldi	r30, 0x04	; 4
    396e:	0c 94 81 1f 	jmp	0x3f02	; 0x3f02 <__epilogue_restores__+0x1c>

00003972 <sprintf>:
    3972:	ae e0       	ldi	r26, 0x0E	; 14
    3974:	b0 e0       	ldi	r27, 0x00	; 0
    3976:	ef eb       	ldi	r30, 0xBF	; 191
    3978:	fc e1       	ldi	r31, 0x1C	; 28
    397a:	0c 94 65 1f 	jmp	0x3eca	; 0x3eca <__prologue_saves__+0x1c>
    397e:	0d 89       	ldd	r16, Y+21	; 0x15
    3980:	1e 89       	ldd	r17, Y+22	; 0x16
    3982:	86 e0       	ldi	r24, 0x06	; 6
    3984:	8c 83       	std	Y+4, r24	; 0x04
    3986:	1a 83       	std	Y+2, r17	; 0x02
    3988:	09 83       	std	Y+1, r16	; 0x01
    398a:	8f ef       	ldi	r24, 0xFF	; 255
    398c:	9f e7       	ldi	r25, 0x7F	; 127
    398e:	9e 83       	std	Y+6, r25	; 0x06
    3990:	8d 83       	std	Y+5, r24	; 0x05
    3992:	ce 01       	movw	r24, r28
    3994:	49 96       	adiw	r24, 0x19	; 25
    3996:	ac 01       	movw	r20, r24
    3998:	6f 89       	ldd	r22, Y+23	; 0x17
    399a:	78 8d       	ldd	r23, Y+24	; 0x18
    399c:	ce 01       	movw	r24, r28
    399e:	01 96       	adiw	r24, 0x01	; 1
    39a0:	0e 94 db 1c 	call	0x39b6	; 0x39b6 <vfprintf>
    39a4:	ef 81       	ldd	r30, Y+7	; 0x07
    39a6:	f8 85       	ldd	r31, Y+8	; 0x08
    39a8:	e0 0f       	add	r30, r16
    39aa:	f1 1f       	adc	r31, r17
    39ac:	10 82       	st	Z, r1
    39ae:	2e 96       	adiw	r28, 0x0e	; 14
    39b0:	e4 e0       	ldi	r30, 0x04	; 4
    39b2:	0c 94 81 1f 	jmp	0x3f02	; 0x3f02 <__epilogue_restores__+0x1c>

000039b6 <vfprintf>:
    39b6:	ac e0       	ldi	r26, 0x0C	; 12
    39b8:	b0 e0       	ldi	r27, 0x00	; 0
    39ba:	e1 ee       	ldi	r30, 0xE1	; 225
    39bc:	fc e1       	ldi	r31, 0x1C	; 28
    39be:	0c 94 57 1f 	jmp	0x3eae	; 0x3eae <__prologue_saves__>
    39c2:	7c 01       	movw	r14, r24
    39c4:	6b 01       	movw	r12, r22
    39c6:	8a 01       	movw	r16, r20
    39c8:	fc 01       	movw	r30, r24
    39ca:	17 82       	std	Z+7, r1	; 0x07
    39cc:	16 82       	std	Z+6, r1	; 0x06
    39ce:	83 81       	ldd	r24, Z+3	; 0x03
    39d0:	81 ff       	sbrs	r24, 1
    39d2:	c6 c1       	rjmp	.+908    	; 0x3d60 <vfprintf+0x3aa>
    39d4:	88 24       	eor	r8, r8
    39d6:	83 94       	inc	r8
    39d8:	91 2c       	mov	r9, r1
    39da:	8c 0e       	add	r8, r28
    39dc:	9d 1e       	adc	r9, r29
    39de:	f7 01       	movw	r30, r14
    39e0:	93 81       	ldd	r25, Z+3	; 0x03
    39e2:	f6 01       	movw	r30, r12
    39e4:	93 fd       	sbrc	r25, 3
    39e6:	85 91       	lpm	r24, Z+
    39e8:	93 ff       	sbrs	r25, 3
    39ea:	81 91       	ld	r24, Z+
    39ec:	6f 01       	movw	r12, r30
    39ee:	88 23       	and	r24, r24
    39f0:	09 f4       	brne	.+2      	; 0x39f4 <vfprintf+0x3e>
    39f2:	b2 c1       	rjmp	.+868    	; 0x3d58 <vfprintf+0x3a2>
    39f4:	85 32       	cpi	r24, 0x25	; 37
    39f6:	39 f4       	brne	.+14     	; 0x3a06 <vfprintf+0x50>
    39f8:	93 fd       	sbrc	r25, 3
    39fa:	85 91       	lpm	r24, Z+
    39fc:	93 ff       	sbrs	r25, 3
    39fe:	81 91       	ld	r24, Z+
    3a00:	6f 01       	movw	r12, r30
    3a02:	85 32       	cpi	r24, 0x25	; 37
    3a04:	29 f4       	brne	.+10     	; 0x3a10 <vfprintf+0x5a>
    3a06:	b7 01       	movw	r22, r14
    3a08:	90 e0       	ldi	r25, 0x00	; 0
    3a0a:	0e 94 cd 1e 	call	0x3d9a	; 0x3d9a <fputc>
    3a0e:	e7 cf       	rjmp	.-50     	; 0x39de <vfprintf+0x28>
    3a10:	51 2c       	mov	r5, r1
    3a12:	31 2c       	mov	r3, r1
    3a14:	20 e0       	ldi	r18, 0x00	; 0
    3a16:	20 32       	cpi	r18, 0x20	; 32
    3a18:	a8 f4       	brcc	.+42     	; 0x3a44 <vfprintf+0x8e>
    3a1a:	8b 32       	cpi	r24, 0x2B	; 43
    3a1c:	61 f0       	breq	.+24     	; 0x3a36 <vfprintf+0x80>
    3a1e:	28 f4       	brcc	.+10     	; 0x3a2a <vfprintf+0x74>
    3a20:	80 32       	cpi	r24, 0x20	; 32
    3a22:	51 f0       	breq	.+20     	; 0x3a38 <vfprintf+0x82>
    3a24:	83 32       	cpi	r24, 0x23	; 35
    3a26:	71 f4       	brne	.+28     	; 0x3a44 <vfprintf+0x8e>
    3a28:	0b c0       	rjmp	.+22     	; 0x3a40 <vfprintf+0x8a>
    3a2a:	8d 32       	cpi	r24, 0x2D	; 45
    3a2c:	39 f0       	breq	.+14     	; 0x3a3c <vfprintf+0x86>
    3a2e:	80 33       	cpi	r24, 0x30	; 48
    3a30:	49 f4       	brne	.+18     	; 0x3a44 <vfprintf+0x8e>
    3a32:	21 60       	ori	r18, 0x01	; 1
    3a34:	28 c0       	rjmp	.+80     	; 0x3a86 <vfprintf+0xd0>
    3a36:	22 60       	ori	r18, 0x02	; 2
    3a38:	24 60       	ori	r18, 0x04	; 4
    3a3a:	25 c0       	rjmp	.+74     	; 0x3a86 <vfprintf+0xd0>
    3a3c:	28 60       	ori	r18, 0x08	; 8
    3a3e:	23 c0       	rjmp	.+70     	; 0x3a86 <vfprintf+0xd0>
    3a40:	20 61       	ori	r18, 0x10	; 16
    3a42:	21 c0       	rjmp	.+66     	; 0x3a86 <vfprintf+0xd0>
    3a44:	27 fd       	sbrc	r18, 7
    3a46:	27 c0       	rjmp	.+78     	; 0x3a96 <vfprintf+0xe0>
    3a48:	38 2f       	mov	r19, r24
    3a4a:	30 53       	subi	r19, 0x30	; 48
    3a4c:	3a 30       	cpi	r19, 0x0A	; 10
    3a4e:	78 f4       	brcc	.+30     	; 0x3a6e <vfprintf+0xb8>
    3a50:	26 ff       	sbrs	r18, 6
    3a52:	06 c0       	rjmp	.+12     	; 0x3a60 <vfprintf+0xaa>
    3a54:	fa e0       	ldi	r31, 0x0A	; 10
    3a56:	5f 9e       	mul	r5, r31
    3a58:	30 0d       	add	r19, r0
    3a5a:	11 24       	eor	r1, r1
    3a5c:	53 2e       	mov	r5, r19
    3a5e:	13 c0       	rjmp	.+38     	; 0x3a86 <vfprintf+0xd0>
    3a60:	8a e0       	ldi	r24, 0x0A	; 10
    3a62:	38 9e       	mul	r3, r24
    3a64:	30 0d       	add	r19, r0
    3a66:	11 24       	eor	r1, r1
    3a68:	33 2e       	mov	r3, r19
    3a6a:	20 62       	ori	r18, 0x20	; 32
    3a6c:	0c c0       	rjmp	.+24     	; 0x3a86 <vfprintf+0xd0>
    3a6e:	8e 32       	cpi	r24, 0x2E	; 46
    3a70:	21 f4       	brne	.+8      	; 0x3a7a <vfprintf+0xc4>
    3a72:	26 fd       	sbrc	r18, 6
    3a74:	71 c1       	rjmp	.+738    	; 0x3d58 <vfprintf+0x3a2>
    3a76:	20 64       	ori	r18, 0x40	; 64
    3a78:	06 c0       	rjmp	.+12     	; 0x3a86 <vfprintf+0xd0>
    3a7a:	8c 36       	cpi	r24, 0x6C	; 108
    3a7c:	11 f4       	brne	.+4      	; 0x3a82 <vfprintf+0xcc>
    3a7e:	20 68       	ori	r18, 0x80	; 128
    3a80:	02 c0       	rjmp	.+4      	; 0x3a86 <vfprintf+0xd0>
    3a82:	88 36       	cpi	r24, 0x68	; 104
    3a84:	41 f4       	brne	.+16     	; 0x3a96 <vfprintf+0xe0>
    3a86:	f6 01       	movw	r30, r12
    3a88:	93 fd       	sbrc	r25, 3
    3a8a:	85 91       	lpm	r24, Z+
    3a8c:	93 ff       	sbrs	r25, 3
    3a8e:	81 91       	ld	r24, Z+
    3a90:	6f 01       	movw	r12, r30
    3a92:	81 11       	cpse	r24, r1
    3a94:	c0 cf       	rjmp	.-128    	; 0x3a16 <vfprintf+0x60>
    3a96:	98 2f       	mov	r25, r24
    3a98:	95 54       	subi	r25, 0x45	; 69
    3a9a:	93 30       	cpi	r25, 0x03	; 3
    3a9c:	18 f0       	brcs	.+6      	; 0x3aa4 <vfprintf+0xee>
    3a9e:	90 52       	subi	r25, 0x20	; 32
    3aa0:	93 30       	cpi	r25, 0x03	; 3
    3aa2:	28 f4       	brcc	.+10     	; 0x3aae <vfprintf+0xf8>
    3aa4:	0c 5f       	subi	r16, 0xFC	; 252
    3aa6:	1f 4f       	sbci	r17, 0xFF	; 255
    3aa8:	ff e3       	ldi	r31, 0x3F	; 63
    3aaa:	f9 83       	std	Y+1, r31	; 0x01
    3aac:	0d c0       	rjmp	.+26     	; 0x3ac8 <vfprintf+0x112>
    3aae:	83 36       	cpi	r24, 0x63	; 99
    3ab0:	31 f0       	breq	.+12     	; 0x3abe <vfprintf+0x108>
    3ab2:	83 37       	cpi	r24, 0x73	; 115
    3ab4:	71 f0       	breq	.+28     	; 0x3ad2 <vfprintf+0x11c>
    3ab6:	83 35       	cpi	r24, 0x53	; 83
    3ab8:	09 f0       	breq	.+2      	; 0x3abc <vfprintf+0x106>
    3aba:	5e c0       	rjmp	.+188    	; 0x3b78 <vfprintf+0x1c2>
    3abc:	23 c0       	rjmp	.+70     	; 0x3b04 <vfprintf+0x14e>
    3abe:	f8 01       	movw	r30, r16
    3ac0:	80 81       	ld	r24, Z
    3ac2:	89 83       	std	Y+1, r24	; 0x01
    3ac4:	0e 5f       	subi	r16, 0xFE	; 254
    3ac6:	1f 4f       	sbci	r17, 0xFF	; 255
    3ac8:	44 24       	eor	r4, r4
    3aca:	43 94       	inc	r4
    3acc:	51 2c       	mov	r5, r1
    3ace:	54 01       	movw	r10, r8
    3ad0:	15 c0       	rjmp	.+42     	; 0x3afc <vfprintf+0x146>
    3ad2:	38 01       	movw	r6, r16
    3ad4:	f2 e0       	ldi	r31, 0x02	; 2
    3ad6:	6f 0e       	add	r6, r31
    3ad8:	71 1c       	adc	r7, r1
    3ada:	f8 01       	movw	r30, r16
    3adc:	a0 80       	ld	r10, Z
    3ade:	b1 80       	ldd	r11, Z+1	; 0x01
    3ae0:	26 ff       	sbrs	r18, 6
    3ae2:	03 c0       	rjmp	.+6      	; 0x3aea <vfprintf+0x134>
    3ae4:	65 2d       	mov	r22, r5
    3ae6:	70 e0       	ldi	r23, 0x00	; 0
    3ae8:	02 c0       	rjmp	.+4      	; 0x3aee <vfprintf+0x138>
    3aea:	6f ef       	ldi	r22, 0xFF	; 255
    3aec:	7f ef       	ldi	r23, 0xFF	; 255
    3aee:	c5 01       	movw	r24, r10
    3af0:	2c 87       	std	Y+12, r18	; 0x0c
    3af2:	0e 94 c2 1e 	call	0x3d84	; 0x3d84 <strnlen>
    3af6:	2c 01       	movw	r4, r24
    3af8:	83 01       	movw	r16, r6
    3afa:	2c 85       	ldd	r18, Y+12	; 0x0c
    3afc:	6f e7       	ldi	r22, 0x7F	; 127
    3afe:	26 2e       	mov	r2, r22
    3b00:	22 22       	and	r2, r18
    3b02:	18 c0       	rjmp	.+48     	; 0x3b34 <vfprintf+0x17e>
    3b04:	38 01       	movw	r6, r16
    3b06:	f2 e0       	ldi	r31, 0x02	; 2
    3b08:	6f 0e       	add	r6, r31
    3b0a:	71 1c       	adc	r7, r1
    3b0c:	f8 01       	movw	r30, r16
    3b0e:	a0 80       	ld	r10, Z
    3b10:	b1 80       	ldd	r11, Z+1	; 0x01
    3b12:	26 ff       	sbrs	r18, 6
    3b14:	03 c0       	rjmp	.+6      	; 0x3b1c <vfprintf+0x166>
    3b16:	65 2d       	mov	r22, r5
    3b18:	70 e0       	ldi	r23, 0x00	; 0
    3b1a:	02 c0       	rjmp	.+4      	; 0x3b20 <vfprintf+0x16a>
    3b1c:	6f ef       	ldi	r22, 0xFF	; 255
    3b1e:	7f ef       	ldi	r23, 0xFF	; 255
    3b20:	c5 01       	movw	r24, r10
    3b22:	2c 87       	std	Y+12, r18	; 0x0c
    3b24:	0e 94 b7 1e 	call	0x3d6e	; 0x3d6e <strnlen_P>
    3b28:	2c 01       	movw	r4, r24
    3b2a:	2c 85       	ldd	r18, Y+12	; 0x0c
    3b2c:	50 e8       	ldi	r21, 0x80	; 128
    3b2e:	25 2e       	mov	r2, r21
    3b30:	22 2a       	or	r2, r18
    3b32:	83 01       	movw	r16, r6
    3b34:	23 fc       	sbrc	r2, 3
    3b36:	1c c0       	rjmp	.+56     	; 0x3b70 <vfprintf+0x1ba>
    3b38:	06 c0       	rjmp	.+12     	; 0x3b46 <vfprintf+0x190>
    3b3a:	b7 01       	movw	r22, r14
    3b3c:	80 e2       	ldi	r24, 0x20	; 32
    3b3e:	90 e0       	ldi	r25, 0x00	; 0
    3b40:	0e 94 cd 1e 	call	0x3d9a	; 0x3d9a <fputc>
    3b44:	3a 94       	dec	r3
    3b46:	83 2d       	mov	r24, r3
    3b48:	90 e0       	ldi	r25, 0x00	; 0
    3b4a:	48 16       	cp	r4, r24
    3b4c:	59 06       	cpc	r5, r25
    3b4e:	a8 f3       	brcs	.-22     	; 0x3b3a <vfprintf+0x184>
    3b50:	0f c0       	rjmp	.+30     	; 0x3b70 <vfprintf+0x1ba>
    3b52:	f5 01       	movw	r30, r10
    3b54:	27 fc       	sbrc	r2, 7
    3b56:	85 91       	lpm	r24, Z+
    3b58:	27 fe       	sbrs	r2, 7
    3b5a:	81 91       	ld	r24, Z+
    3b5c:	5f 01       	movw	r10, r30
    3b5e:	b7 01       	movw	r22, r14
    3b60:	90 e0       	ldi	r25, 0x00	; 0
    3b62:	0e 94 cd 1e 	call	0x3d9a	; 0x3d9a <fputc>
    3b66:	31 10       	cpse	r3, r1
    3b68:	3a 94       	dec	r3
    3b6a:	f1 e0       	ldi	r31, 0x01	; 1
    3b6c:	4f 1a       	sub	r4, r31
    3b6e:	51 08       	sbc	r5, r1
    3b70:	41 14       	cp	r4, r1
    3b72:	51 04       	cpc	r5, r1
    3b74:	71 f7       	brne	.-36     	; 0x3b52 <vfprintf+0x19c>
    3b76:	ed c0       	rjmp	.+474    	; 0x3d52 <vfprintf+0x39c>
    3b78:	84 36       	cpi	r24, 0x64	; 100
    3b7a:	11 f0       	breq	.+4      	; 0x3b80 <vfprintf+0x1ca>
    3b7c:	89 36       	cpi	r24, 0x69	; 105
    3b7e:	41 f5       	brne	.+80     	; 0x3bd0 <vfprintf+0x21a>
    3b80:	f8 01       	movw	r30, r16
    3b82:	27 ff       	sbrs	r18, 7
    3b84:	07 c0       	rjmp	.+14     	; 0x3b94 <vfprintf+0x1de>
    3b86:	60 81       	ld	r22, Z
    3b88:	71 81       	ldd	r23, Z+1	; 0x01
    3b8a:	82 81       	ldd	r24, Z+2	; 0x02
    3b8c:	93 81       	ldd	r25, Z+3	; 0x03
    3b8e:	0c 5f       	subi	r16, 0xFC	; 252
    3b90:	1f 4f       	sbci	r17, 0xFF	; 255
    3b92:	08 c0       	rjmp	.+16     	; 0x3ba4 <vfprintf+0x1ee>
    3b94:	60 81       	ld	r22, Z
    3b96:	71 81       	ldd	r23, Z+1	; 0x01
    3b98:	88 27       	eor	r24, r24
    3b9a:	77 fd       	sbrc	r23, 7
    3b9c:	80 95       	com	r24
    3b9e:	98 2f       	mov	r25, r24
    3ba0:	0e 5f       	subi	r16, 0xFE	; 254
    3ba2:	1f 4f       	sbci	r17, 0xFF	; 255
    3ba4:	4f e6       	ldi	r20, 0x6F	; 111
    3ba6:	b4 2e       	mov	r11, r20
    3ba8:	b2 22       	and	r11, r18
    3baa:	97 ff       	sbrs	r25, 7
    3bac:	09 c0       	rjmp	.+18     	; 0x3bc0 <vfprintf+0x20a>
    3bae:	90 95       	com	r25
    3bb0:	80 95       	com	r24
    3bb2:	70 95       	com	r23
    3bb4:	61 95       	neg	r22
    3bb6:	7f 4f       	sbci	r23, 0xFF	; 255
    3bb8:	8f 4f       	sbci	r24, 0xFF	; 255
    3bba:	9f 4f       	sbci	r25, 0xFF	; 255
    3bbc:	f0 e8       	ldi	r31, 0x80	; 128
    3bbe:	bf 2a       	or	r11, r31
    3bc0:	2a e0       	ldi	r18, 0x0A	; 10
    3bc2:	30 e0       	ldi	r19, 0x00	; 0
    3bc4:	a4 01       	movw	r20, r8
    3bc6:	0e 94 f9 1e 	call	0x3df2	; 0x3df2 <__ultoa_invert>
    3bca:	a8 2e       	mov	r10, r24
    3bcc:	a8 18       	sub	r10, r8
    3bce:	43 c0       	rjmp	.+134    	; 0x3c56 <vfprintf+0x2a0>
    3bd0:	85 37       	cpi	r24, 0x75	; 117
    3bd2:	31 f4       	brne	.+12     	; 0x3be0 <vfprintf+0x22a>
    3bd4:	3f ee       	ldi	r19, 0xEF	; 239
    3bd6:	b3 2e       	mov	r11, r19
    3bd8:	b2 22       	and	r11, r18
    3bda:	2a e0       	ldi	r18, 0x0A	; 10
    3bdc:	30 e0       	ldi	r19, 0x00	; 0
    3bde:	24 c0       	rjmp	.+72     	; 0x3c28 <vfprintf+0x272>
    3be0:	99 ef       	ldi	r25, 0xF9	; 249
    3be2:	b9 2e       	mov	r11, r25
    3be4:	b2 22       	and	r11, r18
    3be6:	8f 36       	cpi	r24, 0x6F	; 111
    3be8:	b9 f0       	breq	.+46     	; 0x3c18 <vfprintf+0x262>
    3bea:	20 f4       	brcc	.+8      	; 0x3bf4 <vfprintf+0x23e>
    3bec:	88 35       	cpi	r24, 0x58	; 88
    3bee:	09 f0       	breq	.+2      	; 0x3bf2 <vfprintf+0x23c>
    3bf0:	b3 c0       	rjmp	.+358    	; 0x3d58 <vfprintf+0x3a2>
    3bf2:	0d c0       	rjmp	.+26     	; 0x3c0e <vfprintf+0x258>
    3bf4:	80 37       	cpi	r24, 0x70	; 112
    3bf6:	21 f0       	breq	.+8      	; 0x3c00 <vfprintf+0x24a>
    3bf8:	88 37       	cpi	r24, 0x78	; 120
    3bfa:	09 f0       	breq	.+2      	; 0x3bfe <vfprintf+0x248>
    3bfc:	ad c0       	rjmp	.+346    	; 0x3d58 <vfprintf+0x3a2>
    3bfe:	02 c0       	rjmp	.+4      	; 0x3c04 <vfprintf+0x24e>
    3c00:	20 e1       	ldi	r18, 0x10	; 16
    3c02:	b2 2a       	or	r11, r18
    3c04:	b4 fe       	sbrs	r11, 4
    3c06:	0b c0       	rjmp	.+22     	; 0x3c1e <vfprintf+0x268>
    3c08:	84 e0       	ldi	r24, 0x04	; 4
    3c0a:	b8 2a       	or	r11, r24
    3c0c:	08 c0       	rjmp	.+16     	; 0x3c1e <vfprintf+0x268>
    3c0e:	24 ff       	sbrs	r18, 4
    3c10:	09 c0       	rjmp	.+18     	; 0x3c24 <vfprintf+0x26e>
    3c12:	e6 e0       	ldi	r30, 0x06	; 6
    3c14:	be 2a       	or	r11, r30
    3c16:	06 c0       	rjmp	.+12     	; 0x3c24 <vfprintf+0x26e>
    3c18:	28 e0       	ldi	r18, 0x08	; 8
    3c1a:	30 e0       	ldi	r19, 0x00	; 0
    3c1c:	05 c0       	rjmp	.+10     	; 0x3c28 <vfprintf+0x272>
    3c1e:	20 e1       	ldi	r18, 0x10	; 16
    3c20:	30 e0       	ldi	r19, 0x00	; 0
    3c22:	02 c0       	rjmp	.+4      	; 0x3c28 <vfprintf+0x272>
    3c24:	20 e1       	ldi	r18, 0x10	; 16
    3c26:	32 e0       	ldi	r19, 0x02	; 2
    3c28:	f8 01       	movw	r30, r16
    3c2a:	b7 fe       	sbrs	r11, 7
    3c2c:	07 c0       	rjmp	.+14     	; 0x3c3c <vfprintf+0x286>
    3c2e:	60 81       	ld	r22, Z
    3c30:	71 81       	ldd	r23, Z+1	; 0x01
    3c32:	82 81       	ldd	r24, Z+2	; 0x02
    3c34:	93 81       	ldd	r25, Z+3	; 0x03
    3c36:	0c 5f       	subi	r16, 0xFC	; 252
    3c38:	1f 4f       	sbci	r17, 0xFF	; 255
    3c3a:	06 c0       	rjmp	.+12     	; 0x3c48 <vfprintf+0x292>
    3c3c:	60 81       	ld	r22, Z
    3c3e:	71 81       	ldd	r23, Z+1	; 0x01
    3c40:	80 e0       	ldi	r24, 0x00	; 0
    3c42:	90 e0       	ldi	r25, 0x00	; 0
    3c44:	0e 5f       	subi	r16, 0xFE	; 254
    3c46:	1f 4f       	sbci	r17, 0xFF	; 255
    3c48:	a4 01       	movw	r20, r8
    3c4a:	0e 94 f9 1e 	call	0x3df2	; 0x3df2 <__ultoa_invert>
    3c4e:	a8 2e       	mov	r10, r24
    3c50:	a8 18       	sub	r10, r8
    3c52:	ff e7       	ldi	r31, 0x7F	; 127
    3c54:	bf 22       	and	r11, r31
    3c56:	b6 fe       	sbrs	r11, 6
    3c58:	0b c0       	rjmp	.+22     	; 0x3c70 <vfprintf+0x2ba>
    3c5a:	2b 2d       	mov	r18, r11
    3c5c:	2e 7f       	andi	r18, 0xFE	; 254
    3c5e:	a5 14       	cp	r10, r5
    3c60:	50 f4       	brcc	.+20     	; 0x3c76 <vfprintf+0x2c0>
    3c62:	b4 fe       	sbrs	r11, 4
    3c64:	0a c0       	rjmp	.+20     	; 0x3c7a <vfprintf+0x2c4>
    3c66:	b2 fc       	sbrc	r11, 2
    3c68:	08 c0       	rjmp	.+16     	; 0x3c7a <vfprintf+0x2c4>
    3c6a:	2b 2d       	mov	r18, r11
    3c6c:	2e 7e       	andi	r18, 0xEE	; 238
    3c6e:	05 c0       	rjmp	.+10     	; 0x3c7a <vfprintf+0x2c4>
    3c70:	7a 2c       	mov	r7, r10
    3c72:	2b 2d       	mov	r18, r11
    3c74:	03 c0       	rjmp	.+6      	; 0x3c7c <vfprintf+0x2c6>
    3c76:	7a 2c       	mov	r7, r10
    3c78:	01 c0       	rjmp	.+2      	; 0x3c7c <vfprintf+0x2c6>
    3c7a:	75 2c       	mov	r7, r5
    3c7c:	24 ff       	sbrs	r18, 4
    3c7e:	0d c0       	rjmp	.+26     	; 0x3c9a <vfprintf+0x2e4>
    3c80:	fe 01       	movw	r30, r28
    3c82:	ea 0d       	add	r30, r10
    3c84:	f1 1d       	adc	r31, r1
    3c86:	80 81       	ld	r24, Z
    3c88:	80 33       	cpi	r24, 0x30	; 48
    3c8a:	11 f4       	brne	.+4      	; 0x3c90 <vfprintf+0x2da>
    3c8c:	29 7e       	andi	r18, 0xE9	; 233
    3c8e:	09 c0       	rjmp	.+18     	; 0x3ca2 <vfprintf+0x2ec>
    3c90:	22 ff       	sbrs	r18, 2
    3c92:	06 c0       	rjmp	.+12     	; 0x3ca0 <vfprintf+0x2ea>
    3c94:	73 94       	inc	r7
    3c96:	73 94       	inc	r7
    3c98:	04 c0       	rjmp	.+8      	; 0x3ca2 <vfprintf+0x2ec>
    3c9a:	82 2f       	mov	r24, r18
    3c9c:	86 78       	andi	r24, 0x86	; 134
    3c9e:	09 f0       	breq	.+2      	; 0x3ca2 <vfprintf+0x2ec>
    3ca0:	73 94       	inc	r7
    3ca2:	23 fd       	sbrc	r18, 3
    3ca4:	14 c0       	rjmp	.+40     	; 0x3cce <vfprintf+0x318>
    3ca6:	20 ff       	sbrs	r18, 0
    3ca8:	0f c0       	rjmp	.+30     	; 0x3cc8 <vfprintf+0x312>
    3caa:	5a 2c       	mov	r5, r10
    3cac:	73 14       	cp	r7, r3
    3cae:	60 f4       	brcc	.+24     	; 0x3cc8 <vfprintf+0x312>
    3cb0:	53 0c       	add	r5, r3
    3cb2:	57 18       	sub	r5, r7
    3cb4:	73 2c       	mov	r7, r3
    3cb6:	08 c0       	rjmp	.+16     	; 0x3cc8 <vfprintf+0x312>
    3cb8:	b7 01       	movw	r22, r14
    3cba:	80 e2       	ldi	r24, 0x20	; 32
    3cbc:	90 e0       	ldi	r25, 0x00	; 0
    3cbe:	2c 87       	std	Y+12, r18	; 0x0c
    3cc0:	0e 94 cd 1e 	call	0x3d9a	; 0x3d9a <fputc>
    3cc4:	73 94       	inc	r7
    3cc6:	2c 85       	ldd	r18, Y+12	; 0x0c
    3cc8:	73 14       	cp	r7, r3
    3cca:	b0 f3       	brcs	.-20     	; 0x3cb8 <vfprintf+0x302>
    3ccc:	04 c0       	rjmp	.+8      	; 0x3cd6 <vfprintf+0x320>
    3cce:	73 14       	cp	r7, r3
    3cd0:	10 f4       	brcc	.+4      	; 0x3cd6 <vfprintf+0x320>
    3cd2:	37 18       	sub	r3, r7
    3cd4:	01 c0       	rjmp	.+2      	; 0x3cd8 <vfprintf+0x322>
    3cd6:	31 2c       	mov	r3, r1
    3cd8:	24 ff       	sbrs	r18, 4
    3cda:	12 c0       	rjmp	.+36     	; 0x3d00 <vfprintf+0x34a>
    3cdc:	b7 01       	movw	r22, r14
    3cde:	80 e3       	ldi	r24, 0x30	; 48
    3ce0:	90 e0       	ldi	r25, 0x00	; 0
    3ce2:	2c 87       	std	Y+12, r18	; 0x0c
    3ce4:	0e 94 cd 1e 	call	0x3d9a	; 0x3d9a <fputc>
    3ce8:	2c 85       	ldd	r18, Y+12	; 0x0c
    3cea:	22 ff       	sbrs	r18, 2
    3cec:	1e c0       	rjmp	.+60     	; 0x3d2a <vfprintf+0x374>
    3cee:	21 ff       	sbrs	r18, 1
    3cf0:	03 c0       	rjmp	.+6      	; 0x3cf8 <vfprintf+0x342>
    3cf2:	88 e5       	ldi	r24, 0x58	; 88
    3cf4:	90 e0       	ldi	r25, 0x00	; 0
    3cf6:	02 c0       	rjmp	.+4      	; 0x3cfc <vfprintf+0x346>
    3cf8:	88 e7       	ldi	r24, 0x78	; 120
    3cfa:	90 e0       	ldi	r25, 0x00	; 0
    3cfc:	b7 01       	movw	r22, r14
    3cfe:	0c c0       	rjmp	.+24     	; 0x3d18 <vfprintf+0x362>
    3d00:	82 2f       	mov	r24, r18
    3d02:	86 78       	andi	r24, 0x86	; 134
    3d04:	91 f0       	breq	.+36     	; 0x3d2a <vfprintf+0x374>
    3d06:	21 fd       	sbrc	r18, 1
    3d08:	02 c0       	rjmp	.+4      	; 0x3d0e <vfprintf+0x358>
    3d0a:	80 e2       	ldi	r24, 0x20	; 32
    3d0c:	01 c0       	rjmp	.+2      	; 0x3d10 <vfprintf+0x35a>
    3d0e:	8b e2       	ldi	r24, 0x2B	; 43
    3d10:	27 fd       	sbrc	r18, 7
    3d12:	8d e2       	ldi	r24, 0x2D	; 45
    3d14:	b7 01       	movw	r22, r14
    3d16:	90 e0       	ldi	r25, 0x00	; 0
    3d18:	0e 94 cd 1e 	call	0x3d9a	; 0x3d9a <fputc>
    3d1c:	06 c0       	rjmp	.+12     	; 0x3d2a <vfprintf+0x374>
    3d1e:	b7 01       	movw	r22, r14
    3d20:	80 e3       	ldi	r24, 0x30	; 48
    3d22:	90 e0       	ldi	r25, 0x00	; 0
    3d24:	0e 94 cd 1e 	call	0x3d9a	; 0x3d9a <fputc>
    3d28:	5a 94       	dec	r5
    3d2a:	a5 14       	cp	r10, r5
    3d2c:	c0 f3       	brcs	.-16     	; 0x3d1e <vfprintf+0x368>
    3d2e:	aa 94       	dec	r10
    3d30:	f4 01       	movw	r30, r8
    3d32:	ea 0d       	add	r30, r10
    3d34:	f1 1d       	adc	r31, r1
    3d36:	b7 01       	movw	r22, r14
    3d38:	80 81       	ld	r24, Z
    3d3a:	90 e0       	ldi	r25, 0x00	; 0
    3d3c:	0e 94 cd 1e 	call	0x3d9a	; 0x3d9a <fputc>
    3d40:	a1 10       	cpse	r10, r1
    3d42:	f5 cf       	rjmp	.-22     	; 0x3d2e <vfprintf+0x378>
    3d44:	06 c0       	rjmp	.+12     	; 0x3d52 <vfprintf+0x39c>
    3d46:	b7 01       	movw	r22, r14
    3d48:	80 e2       	ldi	r24, 0x20	; 32
    3d4a:	90 e0       	ldi	r25, 0x00	; 0
    3d4c:	0e 94 cd 1e 	call	0x3d9a	; 0x3d9a <fputc>
    3d50:	3a 94       	dec	r3
    3d52:	31 10       	cpse	r3, r1
    3d54:	f8 cf       	rjmp	.-16     	; 0x3d46 <vfprintf+0x390>
    3d56:	43 ce       	rjmp	.-890    	; 0x39de <vfprintf+0x28>
    3d58:	f7 01       	movw	r30, r14
    3d5a:	26 81       	ldd	r18, Z+6	; 0x06
    3d5c:	37 81       	ldd	r19, Z+7	; 0x07
    3d5e:	02 c0       	rjmp	.+4      	; 0x3d64 <vfprintf+0x3ae>
    3d60:	2f ef       	ldi	r18, 0xFF	; 255
    3d62:	3f ef       	ldi	r19, 0xFF	; 255
    3d64:	c9 01       	movw	r24, r18
    3d66:	2c 96       	adiw	r28, 0x0c	; 12
    3d68:	e2 e1       	ldi	r30, 0x12	; 18
    3d6a:	0c 94 73 1f 	jmp	0x3ee6	; 0x3ee6 <__epilogue_restores__>

00003d6e <strnlen_P>:
    3d6e:	fc 01       	movw	r30, r24
    3d70:	05 90       	lpm	r0, Z+
    3d72:	61 50       	subi	r22, 0x01	; 1
    3d74:	70 40       	sbci	r23, 0x00	; 0
    3d76:	01 10       	cpse	r0, r1
    3d78:	d8 f7       	brcc	.-10     	; 0x3d70 <strnlen_P+0x2>
    3d7a:	80 95       	com	r24
    3d7c:	90 95       	com	r25
    3d7e:	8e 0f       	add	r24, r30
    3d80:	9f 1f       	adc	r25, r31
    3d82:	08 95       	ret

00003d84 <strnlen>:
    3d84:	fc 01       	movw	r30, r24
    3d86:	61 50       	subi	r22, 0x01	; 1
    3d88:	70 40       	sbci	r23, 0x00	; 0
    3d8a:	01 90       	ld	r0, Z+
    3d8c:	01 10       	cpse	r0, r1
    3d8e:	d8 f7       	brcc	.-10     	; 0x3d86 <strnlen+0x2>
    3d90:	80 95       	com	r24
    3d92:	90 95       	com	r25
    3d94:	8e 0f       	add	r24, r30
    3d96:	9f 1f       	adc	r25, r31
    3d98:	08 95       	ret

00003d9a <fputc>:
    3d9a:	0f 93       	push	r16
    3d9c:	1f 93       	push	r17
    3d9e:	cf 93       	push	r28
    3da0:	df 93       	push	r29
    3da2:	8c 01       	movw	r16, r24
    3da4:	eb 01       	movw	r28, r22
    3da6:	8b 81       	ldd	r24, Y+3	; 0x03
    3da8:	81 fd       	sbrc	r24, 1
    3daa:	03 c0       	rjmp	.+6      	; 0x3db2 <fputc+0x18>
    3dac:	0f ef       	ldi	r16, 0xFF	; 255
    3dae:	1f ef       	ldi	r17, 0xFF	; 255
    3db0:	1a c0       	rjmp	.+52     	; 0x3de6 <fputc+0x4c>
    3db2:	82 ff       	sbrs	r24, 2
    3db4:	0d c0       	rjmp	.+26     	; 0x3dd0 <fputc+0x36>
    3db6:	2e 81       	ldd	r18, Y+6	; 0x06
    3db8:	3f 81       	ldd	r19, Y+7	; 0x07
    3dba:	8c 81       	ldd	r24, Y+4	; 0x04
    3dbc:	9d 81       	ldd	r25, Y+5	; 0x05
    3dbe:	28 17       	cp	r18, r24
    3dc0:	39 07       	cpc	r19, r25
    3dc2:	64 f4       	brge	.+24     	; 0x3ddc <fputc+0x42>
    3dc4:	e8 81       	ld	r30, Y
    3dc6:	f9 81       	ldd	r31, Y+1	; 0x01
    3dc8:	01 93       	st	Z+, r16
    3dca:	f9 83       	std	Y+1, r31	; 0x01
    3dcc:	e8 83       	st	Y, r30
    3dce:	06 c0       	rjmp	.+12     	; 0x3ddc <fputc+0x42>
    3dd0:	e8 85       	ldd	r30, Y+8	; 0x08
    3dd2:	f9 85       	ldd	r31, Y+9	; 0x09
    3dd4:	80 2f       	mov	r24, r16
    3dd6:	09 95       	icall
    3dd8:	89 2b       	or	r24, r25
    3dda:	41 f7       	brne	.-48     	; 0x3dac <fputc+0x12>
    3ddc:	8e 81       	ldd	r24, Y+6	; 0x06
    3dde:	9f 81       	ldd	r25, Y+7	; 0x07
    3de0:	01 96       	adiw	r24, 0x01	; 1
    3de2:	9f 83       	std	Y+7, r25	; 0x07
    3de4:	8e 83       	std	Y+6, r24	; 0x06
    3de6:	c8 01       	movw	r24, r16
    3de8:	df 91       	pop	r29
    3dea:	cf 91       	pop	r28
    3dec:	1f 91       	pop	r17
    3dee:	0f 91       	pop	r16
    3df0:	08 95       	ret

00003df2 <__ultoa_invert>:
    3df2:	fa 01       	movw	r30, r20
    3df4:	aa 27       	eor	r26, r26
    3df6:	28 30       	cpi	r18, 0x08	; 8
    3df8:	51 f1       	breq	.+84     	; 0x3e4e <__ultoa_invert+0x5c>
    3dfa:	20 31       	cpi	r18, 0x10	; 16
    3dfc:	81 f1       	breq	.+96     	; 0x3e5e <__ultoa_invert+0x6c>
    3dfe:	e8 94       	clt
    3e00:	6f 93       	push	r22
    3e02:	6e 7f       	andi	r22, 0xFE	; 254
    3e04:	6e 5f       	subi	r22, 0xFE	; 254
    3e06:	7f 4f       	sbci	r23, 0xFF	; 255
    3e08:	8f 4f       	sbci	r24, 0xFF	; 255
    3e0a:	9f 4f       	sbci	r25, 0xFF	; 255
    3e0c:	af 4f       	sbci	r26, 0xFF	; 255
    3e0e:	b1 e0       	ldi	r27, 0x01	; 1
    3e10:	3e d0       	rcall	.+124    	; 0x3e8e <__ultoa_invert+0x9c>
    3e12:	b4 e0       	ldi	r27, 0x04	; 4
    3e14:	3c d0       	rcall	.+120    	; 0x3e8e <__ultoa_invert+0x9c>
    3e16:	67 0f       	add	r22, r23
    3e18:	78 1f       	adc	r23, r24
    3e1a:	89 1f       	adc	r24, r25
    3e1c:	9a 1f       	adc	r25, r26
    3e1e:	a1 1d       	adc	r26, r1
    3e20:	68 0f       	add	r22, r24
    3e22:	79 1f       	adc	r23, r25
    3e24:	8a 1f       	adc	r24, r26
    3e26:	91 1d       	adc	r25, r1
    3e28:	a1 1d       	adc	r26, r1
    3e2a:	6a 0f       	add	r22, r26
    3e2c:	71 1d       	adc	r23, r1
    3e2e:	81 1d       	adc	r24, r1
    3e30:	91 1d       	adc	r25, r1
    3e32:	a1 1d       	adc	r26, r1
    3e34:	20 d0       	rcall	.+64     	; 0x3e76 <__ultoa_invert+0x84>
    3e36:	09 f4       	brne	.+2      	; 0x3e3a <__ultoa_invert+0x48>
    3e38:	68 94       	set
    3e3a:	3f 91       	pop	r19
    3e3c:	2a e0       	ldi	r18, 0x0A	; 10
    3e3e:	26 9f       	mul	r18, r22
    3e40:	11 24       	eor	r1, r1
    3e42:	30 19       	sub	r19, r0
    3e44:	30 5d       	subi	r19, 0xD0	; 208
    3e46:	31 93       	st	Z+, r19
    3e48:	de f6       	brtc	.-74     	; 0x3e00 <__ultoa_invert+0xe>
    3e4a:	cf 01       	movw	r24, r30
    3e4c:	08 95       	ret
    3e4e:	46 2f       	mov	r20, r22
    3e50:	47 70       	andi	r20, 0x07	; 7
    3e52:	40 5d       	subi	r20, 0xD0	; 208
    3e54:	41 93       	st	Z+, r20
    3e56:	b3 e0       	ldi	r27, 0x03	; 3
    3e58:	0f d0       	rcall	.+30     	; 0x3e78 <__ultoa_invert+0x86>
    3e5a:	c9 f7       	brne	.-14     	; 0x3e4e <__ultoa_invert+0x5c>
    3e5c:	f6 cf       	rjmp	.-20     	; 0x3e4a <__ultoa_invert+0x58>
    3e5e:	46 2f       	mov	r20, r22
    3e60:	4f 70       	andi	r20, 0x0F	; 15
    3e62:	40 5d       	subi	r20, 0xD0	; 208
    3e64:	4a 33       	cpi	r20, 0x3A	; 58
    3e66:	18 f0       	brcs	.+6      	; 0x3e6e <__ultoa_invert+0x7c>
    3e68:	49 5d       	subi	r20, 0xD9	; 217
    3e6a:	31 fd       	sbrc	r19, 1
    3e6c:	40 52       	subi	r20, 0x20	; 32
    3e6e:	41 93       	st	Z+, r20
    3e70:	02 d0       	rcall	.+4      	; 0x3e76 <__ultoa_invert+0x84>
    3e72:	a9 f7       	brne	.-22     	; 0x3e5e <__ultoa_invert+0x6c>
    3e74:	ea cf       	rjmp	.-44     	; 0x3e4a <__ultoa_invert+0x58>
    3e76:	b4 e0       	ldi	r27, 0x04	; 4
    3e78:	a6 95       	lsr	r26
    3e7a:	97 95       	ror	r25
    3e7c:	87 95       	ror	r24
    3e7e:	77 95       	ror	r23
    3e80:	67 95       	ror	r22
    3e82:	ba 95       	dec	r27
    3e84:	c9 f7       	brne	.-14     	; 0x3e78 <__ultoa_invert+0x86>
    3e86:	00 97       	sbiw	r24, 0x00	; 0
    3e88:	61 05       	cpc	r22, r1
    3e8a:	71 05       	cpc	r23, r1
    3e8c:	08 95       	ret
    3e8e:	9b 01       	movw	r18, r22
    3e90:	ac 01       	movw	r20, r24
    3e92:	0a 2e       	mov	r0, r26
    3e94:	06 94       	lsr	r0
    3e96:	57 95       	ror	r21
    3e98:	47 95       	ror	r20
    3e9a:	37 95       	ror	r19
    3e9c:	27 95       	ror	r18
    3e9e:	ba 95       	dec	r27
    3ea0:	c9 f7       	brne	.-14     	; 0x3e94 <__ultoa_invert+0xa2>
    3ea2:	62 0f       	add	r22, r18
    3ea4:	73 1f       	adc	r23, r19
    3ea6:	84 1f       	adc	r24, r20
    3ea8:	95 1f       	adc	r25, r21
    3eaa:	a0 1d       	adc	r26, r0
    3eac:	08 95       	ret

00003eae <__prologue_saves__>:
    3eae:	2f 92       	push	r2
    3eb0:	3f 92       	push	r3
    3eb2:	4f 92       	push	r4
    3eb4:	5f 92       	push	r5
    3eb6:	6f 92       	push	r6
    3eb8:	7f 92       	push	r7
    3eba:	8f 92       	push	r8
    3ebc:	9f 92       	push	r9
    3ebe:	af 92       	push	r10
    3ec0:	bf 92       	push	r11
    3ec2:	cf 92       	push	r12
    3ec4:	df 92       	push	r13
    3ec6:	ef 92       	push	r14
    3ec8:	ff 92       	push	r15
    3eca:	0f 93       	push	r16
    3ecc:	1f 93       	push	r17
    3ece:	cf 93       	push	r28
    3ed0:	df 93       	push	r29
    3ed2:	cd b7       	in	r28, 0x3d	; 61
    3ed4:	de b7       	in	r29, 0x3e	; 62
    3ed6:	ca 1b       	sub	r28, r26
    3ed8:	db 0b       	sbc	r29, r27
    3eda:	0f b6       	in	r0, 0x3f	; 63
    3edc:	f8 94       	cli
    3ede:	de bf       	out	0x3e, r29	; 62
    3ee0:	0f be       	out	0x3f, r0	; 63
    3ee2:	cd bf       	out	0x3d, r28	; 61
    3ee4:	09 94       	ijmp

00003ee6 <__epilogue_restores__>:
    3ee6:	2a 88       	ldd	r2, Y+18	; 0x12
    3ee8:	39 88       	ldd	r3, Y+17	; 0x11
    3eea:	48 88       	ldd	r4, Y+16	; 0x10
    3eec:	5f 84       	ldd	r5, Y+15	; 0x0f
    3eee:	6e 84       	ldd	r6, Y+14	; 0x0e
    3ef0:	7d 84       	ldd	r7, Y+13	; 0x0d
    3ef2:	8c 84       	ldd	r8, Y+12	; 0x0c
    3ef4:	9b 84       	ldd	r9, Y+11	; 0x0b
    3ef6:	aa 84       	ldd	r10, Y+10	; 0x0a
    3ef8:	b9 84       	ldd	r11, Y+9	; 0x09
    3efa:	c8 84       	ldd	r12, Y+8	; 0x08
    3efc:	df 80       	ldd	r13, Y+7	; 0x07
    3efe:	ee 80       	ldd	r14, Y+6	; 0x06
    3f00:	fd 80       	ldd	r15, Y+5	; 0x05
    3f02:	0c 81       	ldd	r16, Y+4	; 0x04
    3f04:	1b 81       	ldd	r17, Y+3	; 0x03
    3f06:	aa 81       	ldd	r26, Y+2	; 0x02
    3f08:	b9 81       	ldd	r27, Y+1	; 0x01
    3f0a:	ce 0f       	add	r28, r30
    3f0c:	d1 1d       	adc	r29, r1
    3f0e:	0f b6       	in	r0, 0x3f	; 63
    3f10:	f8 94       	cli
    3f12:	de bf       	out	0x3e, r29	; 62
    3f14:	0f be       	out	0x3f, r0	; 63
    3f16:	cd bf       	out	0x3d, r28	; 61
    3f18:	ed 01       	movw	r28, r26
    3f1a:	08 95       	ret

00003f1c <_exit>:
    3f1c:	f8 94       	cli

00003f1e <__stop_program>:
    3f1e:	ff cf       	rjmp	.-2      	; 0x3f1e <__stop_program>
